
pi.elf:     file format elf32-littleriscv


Disassembly of section .text:

80001000 <outp>:
80001000:	fe010113          	addi	sp,sp,-32
80001004:	00052583          	lw	a1,0(a0)
80001008:	00912a23          	sw	s1,20(sp)
8000100c:	00050493          	mv	s1,a0
80001010:	80008537          	lui	a0,0x80008
80001014:	00050513          	mv	a0,a0
80001018:	00812c23          	sw	s0,24(sp)
8000101c:	01212823          	sw	s2,16(sp)
80001020:	01312623          	sw	s3,12(sp)
80001024:	00112e23          	sw	ra,28(sp)
80001028:	00448413          	addi	s0,s1,4
8000102c:	6ed000ef          	jal	80001f18 <printf>
80001030:	00c48493          	addi	s1,s1,12
80001034:	00900993          	li	s3,9
80001038:	80008937          	lui	s2,0x80008
8000103c:	00042583          	lw	a1,0(s0)
80001040:	06300793          	li	a5,99
80001044:	04058463          	beqz	a1,8000108c <outp+0x8c>
80001048:	3e700713          	li	a4,999
8000104c:	04b9d863          	bge	s3,a1,8000109c <outp+0x9c>
80001050:	06b7d063          	bge	a5,a1,800010b0 <outp+0xb0>
80001054:	06b75863          	bge	a4,a1,800010c4 <outp+0xc4>
80001058:	01890513          	addi	a0,s2,24 # 80008018 <heap_top+0x2c44>
8000105c:	6bd000ef          	jal	80001f18 <printf>
80001060:	00440413          	addi	s0,s0,4
80001064:	fc941ce3          	bne	s0,s1,8000103c <outp+0x3c>
80001068:	01812403          	lw	s0,24(sp)
8000106c:	01c12083          	lw	ra,28(sp)
80001070:	01412483          	lw	s1,20(sp)
80001074:	01012903          	lw	s2,16(sp)
80001078:	00c12983          	lw	s3,12(sp)
8000107c:	80008537          	lui	a0,0x80008
80001080:	01c50513          	addi	a0,a0,28 # 8000801c <heap_top+0x2c48>
80001084:	02010113          	addi	sp,sp,32
80001088:	6910006f          	j	80001f18 <printf>
8000108c:	80008537          	lui	a0,0x80008
80001090:	00450513          	addi	a0,a0,4 # 80008004 <heap_top+0x2c30>
80001094:	685000ef          	jal	80001f18 <printf>
80001098:	fc9ff06f          	j	80001060 <outp+0x60>
8000109c:	80008537          	lui	a0,0x80008
800010a0:	00c50513          	addi	a0,a0,12 # 8000800c <heap_top+0x2c38>
800010a4:	675000ef          	jal	80001f18 <printf>
800010a8:	00042583          	lw	a1,0(s0)
800010ac:	fadff06f          	j	80001058 <outp+0x58>
800010b0:	80008537          	lui	a0,0x80008
800010b4:	01050513          	addi	a0,a0,16 # 80008010 <heap_top+0x2c3c>
800010b8:	661000ef          	jal	80001f18 <printf>
800010bc:	00042583          	lw	a1,0(s0)
800010c0:	f99ff06f          	j	80001058 <outp+0x58>
800010c4:	80008537          	lui	a0,0x80008
800010c8:	01450513          	addi	a0,a0,20 # 80008014 <heap_top+0x2c40>
800010cc:	64d000ef          	jal	80001f18 <printf>
800010d0:	00042583          	lw	a1,0(s0)
800010d4:	f85ff06f          	j	80001058 <outp+0x58>

800010d8 <add>:
800010d8:	00000793          	li	a5,0
800010dc:	01000893          	li	a7,16
800010e0:	00f586b3          	add	a3,a1,a5
800010e4:	00f50733          	add	a4,a0,a5
800010e8:	0006a803          	lw	a6,0(a3)
800010ec:	00072703          	lw	a4,0(a4)
800010f0:	00f606b3          	add	a3,a2,a5
800010f4:	00478793          	addi	a5,a5,4
800010f8:	01070733          	add	a4,a4,a6
800010fc:	00e6a023          	sw	a4,0(a3)
80001100:	ff1790e3          	bne	a5,a7,800010e0 <add+0x8>
80001104:	000025b7          	lui	a1,0x2
80001108:	ffffe6b7          	lui	a3,0xffffe
8000110c:	00c60793          	addi	a5,a2,12
80001110:	70f58593          	addi	a1,a1,1807 # 270f <__stack_size+0x170f>
80001114:	8f068693          	addi	a3,a3,-1808 # ffffd8f0 <__stack_top+0x7ffe7520>
80001118:	0007a703          	lw	a4,0(a5)
8000111c:	00d70533          	add	a0,a4,a3
80001120:	00e5da63          	bge	a1,a4,80001134 <add+0x5c>
80001124:	ffc7a703          	lw	a4,-4(a5)
80001128:	00a7a023          	sw	a0,0(a5)
8000112c:	00170713          	addi	a4,a4,1
80001130:	fee7ae23          	sw	a4,-4(a5)
80001134:	ffc78793          	addi	a5,a5,-4
80001138:	fef610e3          	bne	a2,a5,80001118 <add+0x40>
8000113c:	00008067          	ret

80001140 <sub>:
80001140:	00000793          	li	a5,0
80001144:	01000893          	li	a7,16
80001148:	00f586b3          	add	a3,a1,a5
8000114c:	00f50733          	add	a4,a0,a5
80001150:	0006a803          	lw	a6,0(a3)
80001154:	00072703          	lw	a4,0(a4)
80001158:	00f606b3          	add	a3,a2,a5
8000115c:	00478793          	addi	a5,a5,4
80001160:	41070733          	sub	a4,a4,a6
80001164:	00e6a023          	sw	a4,0(a3)
80001168:	ff1790e3          	bne	a5,a7,80001148 <sub+0x8>
8000116c:	000026b7          	lui	a3,0x2
80001170:	00c60793          	addi	a5,a2,12
80001174:	71068693          	addi	a3,a3,1808 # 2710 <__stack_size+0x1710>
80001178:	0007a703          	lw	a4,0(a5)
8000117c:	00d705b3          	add	a1,a4,a3
80001180:	00075a63          	bgez	a4,80001194 <sub+0x54>
80001184:	ffc7a703          	lw	a4,-4(a5)
80001188:	00b7a023          	sw	a1,0(a5)
8000118c:	fff70713          	addi	a4,a4,-1
80001190:	fee7ae23          	sw	a4,-4(a5)
80001194:	ffc78793          	addi	a5,a5,-4
80001198:	fef610e3          	bne	a2,a5,80001178 <sub+0x38>
8000119c:	00008067          	ret

800011a0 <mul>:
800011a0:	00002e37          	lui	t3,0x2
800011a4:	ffffe337          	lui	t1,0xffffe
800011a8:	00c50713          	addi	a4,a0,12
800011ac:	00c60893          	addi	a7,a2,12
800011b0:	00000813          	li	a6,0
800011b4:	710e0e13          	addi	t3,t3,1808 # 2710 <__stack_size+0x1710>
800011b8:	8f030313          	addi	t1,t1,-1808 # ffffd8f0 <__stack_top+0x7ffe7520>
800011bc:	00072783          	lw	a5,0(a4)
800011c0:	ffc88893          	addi	a7,a7,-4
800011c4:	ffc70713          	addi	a4,a4,-4
800011c8:	02f587b3          	mul	a5,a1,a5
800011cc:	010787b3          	add	a5,a5,a6
800011d0:	03c7c833          	div	a6,a5,t3
800011d4:	026806b3          	mul	a3,a6,t1
800011d8:	00f687b3          	add	a5,a3,a5
800011dc:	00f8a223          	sw	a5,4(a7)
800011e0:	fce51ee3          	bne	a0,a4,800011bc <mul+0x1c>
800011e4:	00052783          	lw	a5,0(a0)
800011e8:	010787b3          	add	a5,a5,a6
800011ec:	00f62023          	sw	a5,0(a2)
800011f0:	00008067          	ret

800011f4 <divl>:
800011f4:	00002837          	lui	a6,0x2
800011f8:	00052783          	lw	a5,0(a0)
800011fc:	00060713          	mv	a4,a2
80001200:	00450513          	addi	a0,a0,4
80001204:	00c60893          	addi	a7,a2,12
80001208:	71080813          	addi	a6,a6,1808 # 2710 <__stack_size+0x1710>
8000120c:	02b7e6b3          	rem	a3,a5,a1
80001210:	00470713          	addi	a4,a4,4
80001214:	00450513          	addi	a0,a0,4
80001218:	02b7c7b3          	div	a5,a5,a1
8000121c:	030686b3          	mul	a3,a3,a6
80001220:	fef72e23          	sw	a5,-4(a4)
80001224:	ffc52783          	lw	a5,-4(a0)
80001228:	00f687b3          	add	a5,a3,a5
8000122c:	ff1710e3          	bne	a4,a7,8000120c <divl+0x18>
80001230:	02b7c7b3          	div	a5,a5,a1
80001234:	00f62623          	sw	a5,12(a2)
80001238:	00008067          	ret

8000123c <termno>:
8000123c:	ff010113          	addi	sp,sp,-16
80001240:	00050793          	mv	a5,a0
80001244:	00112623          	sw	ra,12(sp)
80001248:	00812423          	sw	s0,8(sp)
8000124c:	00912223          	sw	s1,4(sp)
80001250:	00500713          	li	a4,5
80001254:	00058513          	mv	a0,a1
80001258:	06e78063          	beq	a5,a4,800012b8 <termno+0x7c>
8000125c:	00a00713          	li	a4,10
80001260:	02e78063          	beq	a5,a4,80001280 <termno+0x44>
80001264:	0ef00713          	li	a4,239
80001268:	06e78863          	beq	a5,a4,800012d8 <termno+0x9c>
8000126c:	20300713          	li	a4,515
80001270:	04e78c63          	beq	a5,a4,800012c8 <termno+0x8c>
80001274:	80005437          	lui	s0,0x80005
80001278:	3b042483          	lw	s1,944(s0) # 800053b0 <__clzsi2+0x5c>
8000127c:	0100006f          	j	8000128c <termno+0x50>
80001280:	800057b7          	lui	a5,0x80005
80001284:	3a47a483          	lw	s1,932(a5) # 800053a4 <__clzsi2+0x50>
80001288:	80005437          	lui	s0,0x80005
8000128c:	789030ef          	jal	80005214 <__floatsisf>
80001290:	00048593          	mv	a1,s1
80001294:	3f5030ef          	jal	80004e88 <__mulsf3>
80001298:	3b042583          	lw	a1,944(s0) # 800053b0 <__clzsi2+0x5c>
8000129c:	7cc030ef          	jal	80004a68 <__addsf3>
800012a0:	705030ef          	jal	800051a4 <__fixsfsi>
800012a4:	00c12083          	lw	ra,12(sp)
800012a8:	00812403          	lw	s0,8(sp)
800012ac:	00412483          	lw	s1,4(sp)
800012b0:	01010113          	addi	sp,sp,16
800012b4:	00008067          	ret
800012b8:	800057b7          	lui	a5,0x80005
800012bc:	3a07a483          	lw	s1,928(a5) # 800053a0 <__clzsi2+0x4c>
800012c0:	80005437          	lui	s0,0x80005
800012c4:	fc9ff06f          	j	8000128c <termno+0x50>
800012c8:	800057b7          	lui	a5,0x80005
800012cc:	3ac7a483          	lw	s1,940(a5) # 800053ac <__clzsi2+0x58>
800012d0:	80005437          	lui	s0,0x80005
800012d4:	fb9ff06f          	j	8000128c <termno+0x50>
800012d8:	800057b7          	lui	a5,0x80005
800012dc:	3a87a483          	lw	s1,936(a5) # 800053a8 <__clzsi2+0x54>
800012e0:	80005437          	lui	s0,0x80005
800012e4:	fa9ff06f          	j	8000128c <termno+0x50>

800012e8 <arctan>:
800012e8:	800087b7          	lui	a5,0x80008
800012ec:	fc010113          	addi	sp,sp,-64
800012f0:	3b47a683          	lw	a3,948(a5) # 800083b4 <one>
800012f4:	800087b7          	lui	a5,0x80008
800012f8:	01712e23          	sw	s7,28(sp)
800012fc:	3a87ab83          	lw	s7,936(a5) # 800083a8 <pwr>
80001300:	00002837          	lui	a6,0x2
80001304:	0006a783          	lw	a5,0(a3)
80001308:	03212823          	sw	s2,48(sp)
8000130c:	03312623          	sw	s3,44(sp)
80001310:	01912a23          	sw	s9,20(sp)
80001314:	02112e23          	sw	ra,60(sp)
80001318:	02812c23          	sw	s0,56(sp)
8000131c:	02912a23          	sw	s1,52(sp)
80001320:	03412423          	sw	s4,40(sp)
80001324:	03512223          	sw	s5,36(sp)
80001328:	03612023          	sw	s6,32(sp)
8000132c:	01812c23          	sw	s8,24(sp)
80001330:	01a12823          	sw	s10,16(sp)
80001334:	01b12623          	sw	s11,12(sp)
80001338:	00050993          	mv	s3,a0
8000133c:	00058913          	mv	s2,a1
80001340:	00468693          	addi	a3,a3,4
80001344:	00cb8c93          	addi	s9,s7,12
80001348:	000b8713          	mv	a4,s7
8000134c:	71080813          	addi	a6,a6,1808 # 2710 <__stack_size+0x1710>
80001350:	0337e633          	rem	a2,a5,s3
80001354:	00470713          	addi	a4,a4,4
80001358:	00468693          	addi	a3,a3,4
8000135c:	0337c7b3          	div	a5,a5,s3
80001360:	03060633          	mul	a2,a2,a6
80001364:	fef72e23          	sw	a5,-4(a4)
80001368:	ffc6a783          	lw	a5,-4(a3)
8000136c:	00f607b3          	add	a5,a2,a5
80001370:	ff9710e3          	bne	a4,s9,80001350 <arctan+0x68>
80001374:	0337c7b3          	div	a5,a5,s3
80001378:	00000713          	li	a4,0
8000137c:	01000613          	li	a2,16
80001380:	00fba623          	sw	a5,12(s7)
80001384:	00eb87b3          	add	a5,s7,a4
80001388:	0007a683          	lw	a3,0(a5)
8000138c:	00e907b3          	add	a5,s2,a4
80001390:	00470713          	addi	a4,a4,4
80001394:	00d7a023          	sw	a3,0(a5)
80001398:	fec716e3          	bne	a4,a2,80001384 <arctan+0x9c>
8000139c:	00500793          	li	a5,5
800013a0:	00900413          	li	s0,9
800013a4:	02f98463          	beq	s3,a5,800013cc <arctan+0xe4>
800013a8:	00a00793          	li	a5,10
800013ac:	00600413          	li	s0,6
800013b0:	00f98e63          	beq	s3,a5,800013cc <arctan+0xe4>
800013b4:	0ef00793          	li	a5,239
800013b8:	00300413          	li	s0,3
800013bc:	00f98863          	beq	s3,a5,800013cc <arctan+0xe4>
800013c0:	20300793          	li	a5,515
800013c4:	00f98463          	beq	s3,a5,800013cc <arctan+0xe4>
800013c8:	00d00413          	li	s0,13
800013cc:	800087b7          	lui	a5,0x80008
800013d0:	3a47ad83          	lw	s11,932(a5) # 800083a4 <trm>
800013d4:	00002a37          	lui	s4,0x2
800013d8:	00300a93          	li	s5,3
800013dc:	00100c13          	li	s8,1
800013e0:	004b8d13          	addi	s10,s7,4
800013e4:	00cd8b13          	addi	s6,s11,12
800013e8:	004d8493          	addi	s1,s11,4
800013ec:	710a0a13          	addi	s4,s4,1808 # 2710 <__stack_size+0x1710>
800013f0:	000ba783          	lw	a5,0(s7)
800013f4:	000d8693          	mv	a3,s11
800013f8:	000d0593          	mv	a1,s10
800013fc:	000d0513          	mv	a0,s10
80001400:	000d8713          	mv	a4,s11
80001404:	0337e633          	rem	a2,a5,s3
80001408:	00470713          	addi	a4,a4,4
8000140c:	00450513          	addi	a0,a0,4
80001410:	0337c7b3          	div	a5,a5,s3
80001414:	03460633          	mul	a2,a2,s4
80001418:	fef72e23          	sw	a5,-4(a4)
8000141c:	ffc52783          	lw	a5,-4(a0)
80001420:	00f607b3          	add	a5,a2,a5
80001424:	ff6710e3          	bne	a4,s6,80001404 <arctan+0x11c>
80001428:	0337c733          	div	a4,a5,s3
8000142c:	000da783          	lw	a5,0(s11)
80001430:	00048513          	mv	a0,s1
80001434:	000b8613          	mv	a2,s7
80001438:	00eda623          	sw	a4,12(s11)
8000143c:	0337e733          	rem	a4,a5,s3
80001440:	00460613          	addi	a2,a2,4
80001444:	00450513          	addi	a0,a0,4
80001448:	0337c7b3          	div	a5,a5,s3
8000144c:	03470733          	mul	a4,a4,s4
80001450:	fef62e23          	sw	a5,-4(a2)
80001454:	ffc52783          	lw	a5,-4(a0)
80001458:	00f707b3          	add	a5,a4,a5
8000145c:	ff9610e3          	bne	a2,s9,8000143c <arctan+0x154>
80001460:	0337c733          	div	a4,a5,s3
80001464:	000ba783          	lw	a5,0(s7)
80001468:	00eba623          	sw	a4,12(s7)
8000146c:	0357e733          	rem	a4,a5,s5
80001470:	00468693          	addi	a3,a3,4
80001474:	00458593          	addi	a1,a1,4
80001478:	0357c7b3          	div	a5,a5,s5
8000147c:	03470733          	mul	a4,a4,s4
80001480:	fef6ae23          	sw	a5,-4(a3)
80001484:	ffc5a783          	lw	a5,-4(a1)
80001488:	00f707b3          	add	a5,a4,a5
8000148c:	ff6690e3          	bne	a3,s6,8000146c <arctan+0x184>
80001490:	0357c7b3          	div	a5,a5,s5
80001494:	001c7713          	andi	a4,s8,1
80001498:	00090613          	mv	a2,s2
8000149c:	000d8593          	mv	a1,s11
800014a0:	00090513          	mv	a0,s2
800014a4:	00fda623          	sw	a5,12(s11)
800014a8:	04070863          	beqz	a4,800014f8 <arctan+0x210>
800014ac:	c95ff0ef          	jal	80001140 <sub>
800014b0:	001c0c13          	addi	s8,s8,1
800014b4:	002a8a93          	addi	s5,s5,2
800014b8:	f3845ce3          	bge	s0,s8,800013f0 <arctan+0x108>
800014bc:	03c12083          	lw	ra,60(sp)
800014c0:	03812403          	lw	s0,56(sp)
800014c4:	03412483          	lw	s1,52(sp)
800014c8:	03012903          	lw	s2,48(sp)
800014cc:	02c12983          	lw	s3,44(sp)
800014d0:	02812a03          	lw	s4,40(sp)
800014d4:	02412a83          	lw	s5,36(sp)
800014d8:	02012b03          	lw	s6,32(sp)
800014dc:	01c12b83          	lw	s7,28(sp)
800014e0:	01812c03          	lw	s8,24(sp)
800014e4:	01412c83          	lw	s9,20(sp)
800014e8:	01012d03          	lw	s10,16(sp)
800014ec:	00c12d83          	lw	s11,12(sp)
800014f0:	04010113          	addi	sp,sp,64
800014f4:	00008067          	ret
800014f8:	be1ff0ef          	jal	800010d8 <add>
800014fc:	fb5ff06f          	j	800014b0 <arctan+0x1c8>

80001500 <main>:
80001500:	80008537          	lui	a0,0x80008
80001504:	fd010113          	addi	sp,sp,-48
80001508:	00a00593          	li	a1,10
8000150c:	02050513          	addi	a0,a0,32 # 80008020 <heap_top+0x2c4c>
80001510:	02112623          	sw	ra,44(sp)
80001514:	02912223          	sw	s1,36(sp)
80001518:	03212023          	sw	s2,32(sp)
8000151c:	01312e23          	sw	s3,28(sp)
80001520:	01412c23          	sw	s4,24(sp)
80001524:	01612823          	sw	s6,16(sp)
80001528:	02812423          	sw	s0,40(sp)
8000152c:	01512a23          	sw	s5,20(sp)
80001530:	01712623          	sw	s7,12(sp)
80001534:	1e5000ef          	jal	80001f18 <printf>
80001538:	01000513          	li	a0,16
8000153c:	46d000ef          	jal	800021a8 <malloc>
80001540:	00050793          	mv	a5,a0
80001544:	800089b7          	lui	s3,0x80008
80001548:	01000513          	li	a0,16
8000154c:	3af9aa23          	sw	a5,948(s3) # 800083b4 <one>
80001550:	459000ef          	jal	800021a8 <malloc>
80001554:	00050793          	mv	a5,a0
80001558:	80008937          	lui	s2,0x80008
8000155c:	01000513          	li	a0,16
80001560:	3af92823          	sw	a5,944(s2) # 800083b0 <temp>
80001564:	445000ef          	jal	800021a8 <malloc>
80001568:	00050793          	mv	a5,a0
8000156c:	800084b7          	lui	s1,0x80008
80001570:	01000513          	li	a0,16
80001574:	3af4a623          	sw	a5,940(s1) # 800083ac <pi>
80001578:	431000ef          	jal	800021a8 <malloc>
8000157c:	00050793          	mv	a5,a0
80001580:	80008a37          	lui	s4,0x80008
80001584:	01000513          	li	a0,16
80001588:	3afa2423          	sw	a5,936(s4) # 800083a8 <pwr>
8000158c:	41d000ef          	jal	800021a8 <malloc>
80001590:	3b49a783          	lw	a5,948(s3)
80001594:	3b092603          	lw	a2,944(s2)
80001598:	3ac4a683          	lw	a3,940(s1)
8000159c:	3a8a2703          	lw	a4,936(s4)
800015a0:	00c7f633          	and	a2,a5,a2
800015a4:	00c6f6b3          	and	a3,a3,a2
800015a8:	80008b37          	lui	s6,0x80008
800015ac:	00d77733          	and	a4,a4,a3
800015b0:	3aab2223          	sw	a0,932(s6) # 800083a4 <trm>
800015b4:	00e57533          	and	a0,a0,a4
800015b8:	10050063          	beqz	a0,800016b8 <main+0x1b8>
800015bc:	00100713          	li	a4,1
800015c0:	00e7a023          	sw	a4,0(a5)
800015c4:	0007a223          	sw	zero,4(a5)
800015c8:	0007a423          	sw	zero,8(a5)
800015cc:	0007a623          	sw	zero,12(a5)
800015d0:	0bc010ef          	jal	8000268c <clock>
800015d4:	3b092403          	lw	s0,944(s2)
800015d8:	00050a93          	mv	s5,a0
800015dc:	00500513          	li	a0,5
800015e0:	00040593          	mv	a1,s0
800015e4:	d05ff0ef          	jal	800012e8 <arctan>
800015e8:	3ac4ab83          	lw	s7,940(s1)
800015ec:	00040513          	mv	a0,s0
800015f0:	01000593          	li	a1,16
800015f4:	000b8613          	mv	a2,s7
800015f8:	ba9ff0ef          	jal	800011a0 <mul>
800015fc:	00040593          	mv	a1,s0
80001600:	0ef00513          	li	a0,239
80001604:	ce5ff0ef          	jal	800012e8 <arctan>
80001608:	00040613          	mv	a2,s0
8000160c:	00040513          	mv	a0,s0
80001610:	00400593          	li	a1,4
80001614:	b8dff0ef          	jal	800011a0 <mul>
80001618:	000b8613          	mv	a2,s7
8000161c:	00040593          	mv	a1,s0
80001620:	000b8513          	mv	a0,s7
80001624:	b1dff0ef          	jal	80001140 <sub>
80001628:	064010ef          	jal	8000268c <clock>
8000162c:	00050413          	mv	s0,a0
80001630:	80008537          	lui	a0,0x80008
80001634:	05850513          	addi	a0,a0,88 # 80008058 <heap_top+0x2c84>
80001638:	0e1000ef          	jal	80001f18 <printf>
8000163c:	3ac4a503          	lw	a0,940(s1)
80001640:	41540433          	sub	s0,s0,s5
80001644:	9bdff0ef          	jal	80001000 <outp>
80001648:	3e800593          	li	a1,1000
8000164c:	02b455b3          	divu	a1,s0,a1
80001650:	80008537          	lui	a0,0x80008
80001654:	00a00613          	li	a2,10
80001658:	06050513          	addi	a0,a0,96 # 80008060 <heap_top+0x2c8c>
8000165c:	0bd000ef          	jal	80001f18 <printf>
80001660:	3b49a503          	lw	a0,948(s3)
80001664:	46d000ef          	jal	800022d0 <free>
80001668:	3b092503          	lw	a0,944(s2)
8000166c:	465000ef          	jal	800022d0 <free>
80001670:	3ac4a503          	lw	a0,940(s1)
80001674:	45d000ef          	jal	800022d0 <free>
80001678:	3a8a2503          	lw	a0,936(s4)
8000167c:	455000ef          	jal	800022d0 <free>
80001680:	3a4b2503          	lw	a0,932(s6)
80001684:	44d000ef          	jal	800022d0 <free>
80001688:	02c12083          	lw	ra,44(sp)
8000168c:	02812403          	lw	s0,40(sp)
80001690:	02412483          	lw	s1,36(sp)
80001694:	02012903          	lw	s2,32(sp)
80001698:	01c12983          	lw	s3,28(sp)
8000169c:	01812a03          	lw	s4,24(sp)
800016a0:	01412a83          	lw	s5,20(sp)
800016a4:	01012b03          	lw	s6,16(sp)
800016a8:	00c12b83          	lw	s7,12(sp)
800016ac:	00000513          	li	a0,0
800016b0:	03010113          	addi	sp,sp,48
800016b4:	00008067          	ret
800016b8:	80008537          	lui	a0,0x80008
800016bc:	04050513          	addi	a0,a0,64 # 80008040 <heap_top+0x2c6c>
800016c0:	059000ef          	jal	80001f18 <printf>
800016c4:	00100513          	li	a0,1
800016c8:	295000ef          	jal	8000215c <exit>
800016cc:	3b49a783          	lw	a5,948(s3)
800016d0:	eedff06f          	j	800015bc <main+0xbc>

800016d4 <crt0>:
800016d4:	ff010113          	addi	sp,sp,-16
800016d8:	00112623          	sw	ra,12(sp)
800016dc:	800082b7          	lui	t0,0x80008
800016e0:	3a22ac23          	sw	sp,952(t0) # 800083b8 <sp_store>
800016e4:	800082b7          	lui	t0,0x80008
800016e8:	3782a103          	lw	sp,888(t0) # 80008378 <stack_top>
800016ec:	e15ff0ef          	jal	80001500 <main>
800016f0:	800082b7          	lui	t0,0x80008
800016f4:	3b82a103          	lw	sp,952(t0) # 800083b8 <sp_store>
800016f8:	00c12083          	lw	ra,12(sp)
800016fc:	01010113          	addi	sp,sp,16
80001700:	00008067          	ret

80001704 <getchar>:
80001704:	ff010113          	addi	sp,sp,-16
80001708:	00112623          	sw	ra,12(sp)
8000170c:	034010ef          	jal	80002740 <inbyte>
80001710:	00c12083          	lw	ra,12(sp)
80001714:	01010113          	addi	sp,sp,16
80001718:	00008067          	ret

8000171c <putchar>:
8000171c:	ff010113          	addi	sp,sp,-16
80001720:	00812423          	sw	s0,8(sp)
80001724:	00050413          	mv	s0,a0
80001728:	0ff57513          	zext.b	a0,a0
8000172c:	00112623          	sw	ra,12(sp)
80001730:	034010ef          	jal	80002764 <outbyte>
80001734:	00c12083          	lw	ra,12(sp)
80001738:	00040513          	mv	a0,s0
8000173c:	00812403          	lw	s0,8(sp)
80001740:	01010113          	addi	sp,sp,16
80001744:	00008067          	ret

80001748 <fputs>:
80001748:	800087b7          	lui	a5,0x80008
8000174c:	3807a783          	lw	a5,896(a5) # 80008380 <stdout>
80001750:	ff010113          	addi	sp,sp,-16
80001754:	00112623          	sw	ra,12(sp)
80001758:	00812423          	sw	s0,8(sp)
8000175c:	04b78263          	beq	a5,a1,800017a0 <fputs+0x58>
80001760:	80008437          	lui	s0,0x80008
80001764:	00a00513          	li	a0,10
80001768:	09040413          	addi	s0,s0,144 # 80008090 <heap_top+0x2cbc>
8000176c:	00140413          	addi	s0,s0,1
80001770:	7f5000ef          	jal	80002764 <outbyte>
80001774:	00044503          	lbu	a0,0(s0)
80001778:	fe051ae3          	bnez	a0,8000176c <fputs+0x24>
8000177c:	00a00513          	li	a0,10
80001780:	7e5000ef          	jal	80002764 <outbyte>
80001784:	00a00513          	li	a0,10
80001788:	7dd000ef          	jal	80002764 <outbyte>
8000178c:	00c12083          	lw	ra,12(sp)
80001790:	00812403          	lw	s0,8(sp)
80001794:	00a00513          	li	a0,10
80001798:	01010113          	addi	sp,sp,16
8000179c:	00008067          	ret
800017a0:	00050413          	mv	s0,a0
800017a4:	00054503          	lbu	a0,0(a0)
800017a8:	fc050ee3          	beqz	a0,80001784 <fputs+0x3c>
800017ac:	00140413          	addi	s0,s0,1
800017b0:	7b5000ef          	jal	80002764 <outbyte>
800017b4:	00044503          	lbu	a0,0(s0)
800017b8:	fe051ae3          	bnez	a0,800017ac <fputs+0x64>
800017bc:	00a00513          	li	a0,10
800017c0:	7a5000ef          	jal	80002764 <outbyte>
800017c4:	00c12083          	lw	ra,12(sp)
800017c8:	00812403          	lw	s0,8(sp)
800017cc:	00a00513          	li	a0,10
800017d0:	01010113          	addi	sp,sp,16
800017d4:	00008067          	ret

800017d8 <fgets>:
800017d8:	800087b7          	lui	a5,0x80008
800017dc:	3847a783          	lw	a5,900(a5) # 80008384 <stdin>
800017e0:	fe010113          	addi	sp,sp,-32
800017e4:	00112e23          	sw	ra,28(sp)
800017e8:	00812c23          	sw	s0,24(sp)
800017ec:	06c79e63          	bne	a5,a2,80001868 <fgets+0x90>
800017f0:	00912a23          	sw	s1,20(sp)
800017f4:	01212823          	sw	s2,16(sp)
800017f8:	01312623          	sw	s3,12(sp)
800017fc:	01412423          	sw	s4,8(sp)
80001800:	00050493          	mv	s1,a0
80001804:	00050413          	mv	s0,a0
80001808:	00a00913          	li	s2,10
8000180c:	00d00993          	li	s3,13
80001810:	00b50a33          	add	s4,a0,a1
80001814:	00059c63          	bnez	a1,8000182c <fgets+0x54>
80001818:	0200006f          	j	80001838 <fgets+0x60>
8000181c:	01350e63          	beq	a0,s3,80001838 <fgets+0x60>
80001820:	00140413          	addi	s0,s0,1
80001824:	741000ef          	jal	80002764 <outbyte>
80001828:	01440863          	beq	s0,s4,80001838 <fgets+0x60>
8000182c:	715000ef          	jal	80002740 <inbyte>
80001830:	00a40023          	sb	a0,0(s0)
80001834:	ff2514e3          	bne	a0,s2,8000181c <fgets+0x44>
80001838:	00a00513          	li	a0,10
8000183c:	729000ef          	jal	80002764 <outbyte>
80001840:	00040023          	sb	zero,0(s0)
80001844:	01c12083          	lw	ra,28(sp)
80001848:	01812403          	lw	s0,24(sp)
8000184c:	01012903          	lw	s2,16(sp)
80001850:	00c12983          	lw	s3,12(sp)
80001854:	00812a03          	lw	s4,8(sp)
80001858:	00048513          	mv	a0,s1
8000185c:	01412483          	lw	s1,20(sp)
80001860:	02010113          	addi	sp,sp,32
80001864:	00008067          	ret
80001868:	80008437          	lui	s0,0x80008
8000186c:	00a00513          	li	a0,10
80001870:	0bc40413          	addi	s0,s0,188 # 800080bc <heap_top+0x2ce8>
80001874:	00140413          	addi	s0,s0,1
80001878:	6ed000ef          	jal	80002764 <outbyte>
8000187c:	00044503          	lbu	a0,0(s0)
80001880:	fe051ae3          	bnez	a0,80001874 <fgets+0x9c>
80001884:	00a00513          	li	a0,10
80001888:	6dd000ef          	jal	80002764 <outbyte>
8000188c:	01c12083          	lw	ra,28(sp)
80001890:	01812403          	lw	s0,24(sp)
80001894:	00000513          	li	a0,0
80001898:	02010113          	addi	sp,sp,32
8000189c:	00008067          	ret

800018a0 <putd>:
800018a0:	fd010113          	addi	sp,sp,-48
800018a4:	00d037b3          	snez	a5,a3
800018a8:	3b9ad737          	lui	a4,0x3b9ad
800018ac:	02912223          	sw	s1,36(sp)
800018b0:	03212023          	sw	s2,32(sp)
800018b4:	01312e23          	sw	s3,28(sp)
800018b8:	02112623          	sw	ra,44(sp)
800018bc:	02812423          	sw	s0,40(sp)
800018c0:	00068913          	mv	s2,a3
800018c4:	40f585b3          	sub	a1,a1,a5
800018c8:	00a00813          	li	a6,10
800018cc:	00000493          	li	s1,0
800018d0:	00100993          	li	s3,1
800018d4:	a0070713          	addi	a4,a4,-1536 # 3b9aca00 <__heap_size+0x3b99fa00>
800018d8:	00a00893          	li	a7,10
800018dc:	0300006f          	j	8000190c <putd+0x6c>
800018e0:	02f576b3          	remu	a3,a0,a5
800018e4:	00000993          	li	s3,0
800018e8:	02f557b3          	divu	a5,a0,a5
800018ec:	00068513          	mv	a0,a3
800018f0:	01048693          	addi	a3,s1,16
800018f4:	002686b3          	add	a3,a3,sp
800018f8:	00148493          	addi	s1,s1,1
800018fc:	03078793          	addi	a5,a5,48
80001900:	fef68823          	sb	a5,-16(a3)
80001904:	fff80813          	addi	a6,a6,-1
80001908:	00080e63          	beqz	a6,80001924 <putd+0x84>
8000190c:	00070793          	mv	a5,a4
80001910:	03175733          	divu	a4,a4,a7
80001914:	fcf576e3          	bgeu	a0,a5,800018e0 <putd+0x40>
80001918:	fe0996e3          	bnez	s3,80001904 <putd+0x64>
8000191c:	00050693          	mv	a3,a0
80001920:	fc5ff06f          	j	800018e4 <putd+0x44>
80001924:	08099c63          	bnez	s3,800019bc <putd+0x11c>
80001928:	00014783          	lbu	a5,0(sp)
8000192c:	00048993          	mv	s3,s1
80001930:	00f10023          	sb	a5,0(sp)
80001934:	01048793          	addi	a5,s1,16
80001938:	002787b3          	add	a5,a5,sp
8000193c:	fe078823          	sb	zero,-16(a5)
80001940:	fff58413          	addi	s0,a1,-1
80001944:	04060a63          	beqz	a2,80001998 <putd+0xf8>
80001948:	08091063          	bnez	s2,800019c8 <putd+0x128>
8000194c:	00944a63          	blt	s0,s1,80001960 <putd+0xc0>
80001950:	03000513          	li	a0,48
80001954:	fff40413          	addi	s0,s0,-1
80001958:	60d000ef          	jal	80002764 <outbyte>
8000195c:	fe945ae3          	bge	s0,s1,80001950 <putd+0xb0>
80001960:	00010413          	mv	s0,sp
80001964:	008984b3          	add	s1,s3,s0
80001968:	00098a63          	beqz	s3,8000197c <putd+0xdc>
8000196c:	00044503          	lbu	a0,0(s0)
80001970:	00140413          	addi	s0,s0,1
80001974:	5f1000ef          	jal	80002764 <outbyte>
80001978:	fe941ae3          	bne	s0,s1,8000196c <putd+0xcc>
8000197c:	02c12083          	lw	ra,44(sp)
80001980:	02812403          	lw	s0,40(sp)
80001984:	02412483          	lw	s1,36(sp)
80001988:	02012903          	lw	s2,32(sp)
8000198c:	01c12983          	lw	s3,28(sp)
80001990:	03010113          	addi	sp,sp,48
80001994:	00008067          	ret
80001998:	00944a63          	blt	s0,s1,800019ac <putd+0x10c>
8000199c:	02000513          	li	a0,32
800019a0:	fff40413          	addi	s0,s0,-1
800019a4:	5c1000ef          	jal	80002764 <outbyte>
800019a8:	fe945ae3          	bge	s0,s1,8000199c <putd+0xfc>
800019ac:	fa090ae3          	beqz	s2,80001960 <putd+0xc0>
800019b0:	02d00513          	li	a0,45
800019b4:	5b1000ef          	jal	80002764 <outbyte>
800019b8:	fa9ff06f          	j	80001960 <putd+0xc0>
800019bc:	03000793          	li	a5,48
800019c0:	00100493          	li	s1,1
800019c4:	f6dff06f          	j	80001930 <putd+0x90>
800019c8:	02d00513          	li	a0,45
800019cc:	599000ef          	jal	80002764 <outbyte>
800019d0:	f89450e3          	bge	s0,s1,80001950 <putd+0xb0>
800019d4:	f8dff06f          	j	80001960 <putd+0xc0>

800019d8 <putx>:
800019d8:	01f6d793          	srli	a5,a3,0x1f
800019dc:	00f68833          	add	a6,a3,a5
800019e0:	00187813          	andi	a6,a6,1
800019e4:	40f80833          	sub	a6,a6,a5
800019e8:	800087b7          	lui	a5,0x80008
800019ec:	fd010113          	addi	sp,sp,-48
800019f0:	0e878793          	addi	a5,a5,232 # 800080e8 <heap_top+0x2d14>
800019f4:	00281813          	slli	a6,a6,0x2
800019f8:	00f12623          	sw	a5,12(sp)
800019fc:	800087b7          	lui	a5,0x80008
80001a00:	0fc78793          	addi	a5,a5,252 # 800080fc <heap_top+0x2d28>
80001a04:	02080713          	addi	a4,a6,32
80001a08:	02812423          	sw	s0,40(sp)
80001a0c:	00f12823          	sw	a5,16(sp)
80001a10:	02112623          	sw	ra,44(sp)
80001a14:	02912223          	sw	s1,36(sp)
80001a18:	01c00793          	li	a5,28
80001a1c:	00000413          	li	s0,0
80001a20:	00100e93          	li	t4,1
80001a24:	00270833          	add	a6,a4,sp
80001a28:	02000e13          	li	t3,32
80001a2c:	ffc00313          	li	t1,-4
80001a30:	0300006f          	j	80001a60 <putx+0x88>
80001a34:	00e8d533          	srl	a0,a7,a4
80001a38:	00000e93          	li	t4,0
80001a3c:	fec82703          	lw	a4,-20(a6)
80001a40:	ffc78793          	addi	a5,a5,-4
80001a44:	00d70733          	add	a4,a4,a3
80001a48:	00074683          	lbu	a3,0(a4)
80001a4c:	02040713          	addi	a4,s0,32
80001a50:	00270733          	add	a4,a4,sp
80001a54:	fed70a23          	sb	a3,-12(a4)
80001a58:	00140413          	addi	s0,s0,1
80001a5c:	02678263          	beq	a5,t1,80001a80 <putx+0xa8>
80001a60:	40fe0733          	sub	a4,t3,a5
80001a64:	00f556b3          	srl	a3,a0,a5
80001a68:	00e518b3          	sll	a7,a0,a4
80001a6c:	fc0694e3          	bnez	a3,80001a34 <putx+0x5c>
80001a70:	fc0e86e3          	beqz	t4,80001a3c <putx+0x64>
80001a74:	fc0614e3          	bnez	a2,80001a3c <putx+0x64>
80001a78:	ffc78793          	addi	a5,a5,-4
80001a7c:	fe6792e3          	bne	a5,t1,80001a60 <putx+0x88>
80001a80:	02040793          	addi	a5,s0,32
80001a84:	002787b3          	add	a5,a5,sp
80001a88:	fe078a23          	sb	zero,-12(a5)
80001a8c:	fff58493          	addi	s1,a1,-1
80001a90:	0084cc63          	blt	s1,s0,80001aa8 <putx+0xd0>
80001a94:	04060263          	beqz	a2,80001ad8 <putx+0x100>
80001a98:	03000513          	li	a0,48
80001a9c:	fff48493          	addi	s1,s1,-1
80001aa0:	4c5000ef          	jal	80002764 <outbyte>
80001aa4:	fe84dae3          	bge	s1,s0,80001a98 <putx+0xc0>
80001aa8:	00805e63          	blez	s0,80001ac4 <putx+0xec>
80001aac:	01410493          	addi	s1,sp,20
80001ab0:	00940433          	add	s0,s0,s1
80001ab4:	0004c503          	lbu	a0,0(s1)
80001ab8:	00148493          	addi	s1,s1,1
80001abc:	4a9000ef          	jal	80002764 <outbyte>
80001ac0:	fe941ae3          	bne	s0,s1,80001ab4 <putx+0xdc>
80001ac4:	02c12083          	lw	ra,44(sp)
80001ac8:	02812403          	lw	s0,40(sp)
80001acc:	02412483          	lw	s1,36(sp)
80001ad0:	03010113          	addi	sp,sp,48
80001ad4:	00008067          	ret
80001ad8:	02000513          	li	a0,32
80001adc:	fff48493          	addi	s1,s1,-1
80001ae0:	485000ef          	jal	80002764 <outbyte>
80001ae4:	fc84c2e3          	blt	s1,s0,80001aa8 <putx+0xd0>
80001ae8:	02000513          	li	a0,32
80001aec:	fff48493          	addi	s1,s1,-1
80001af0:	475000ef          	jal	80002764 <outbyte>
80001af4:	fe84d2e3          	bge	s1,s0,80001ad8 <putx+0x100>
80001af8:	fb1ff06f          	j	80001aa8 <putx+0xd0>

80001afc <putld>:
80001afc:	f9010113          	addi	sp,sp,-112
80001b00:	06812423          	sw	s0,104(sp)
80001b04:	07212023          	sw	s2,96(sp)
80001b08:	05612823          	sw	s6,80(sp)
80001b0c:	03b12e23          	sw	s11,60(sp)
80001b10:	06112623          	sw	ra,108(sp)
80001b14:	06912223          	sw	s1,100(sp)
80001b18:	05312e23          	sw	s3,92(sp)
80001b1c:	05412c23          	sw	s4,88(sp)
80001b20:	05512a23          	sw	s5,84(sp)
80001b24:	05712623          	sw	s7,76(sp)
80001b28:	05812423          	sw	s8,72(sp)
80001b2c:	05912223          	sw	s9,68(sp)
80001b30:	05a12023          	sw	s10,64(sp)
80001b34:	00d12623          	sw	a3,12(sp)
80001b38:	00050d93          	mv	s11,a0
80001b3c:	00058413          	mv	s0,a1
80001b40:	00060913          	mv	s2,a2
80001b44:	00000b13          	li	s6,0
80001b48:	00071663          	bnez	a4,80001b54 <putld+0x58>
80001b4c:	00070b13          	mv	s6,a4
80001b50:	1e05c063          	bltz	a1,80001d30 <putld+0x234>
80001b54:	01634c37          	lui	s8,0x1634
80001b58:	ccccdcb7          	lui	s9,0xccccd
80001b5c:	ccccd9b7          	lui	s3,0xccccd
80001b60:	01200d13          	li	s10,18
80001b64:	00000493          	li	s1,0
80001b68:	00100a13          	li	s4,1
80001b6c:	5d8a0bb7          	lui	s7,0x5d8a0
80001b70:	578c0c13          	addi	s8,s8,1400 # 1634578 <__heap_size+0x1627578>
80001b74:	00500a93          	li	s5,5
80001b78:	ccdc8c93          	addi	s9,s9,-819 # cccccccd <__stack_top+0x4ccb68fd>
80001b7c:	ccc98993          	addi	s3,s3,-820 # cccccccc <__stack_top+0x4ccb68fc>
80001b80:	04c0006f          	j	80001bcc <putld+0xd0>
80001b84:	02a687b3          	mul	a5,a3,a0
80001b88:	02a70733          	mul	a4,a4,a0
80001b8c:	40fd87b3          	sub	a5,s11,a5
80001b90:	00fdb5b3          	sltu	a1,s11,a5
80001b94:	00078d93          	mv	s11,a5
80001b98:	02d536b3          	mulhu	a3,a0,a3
80001b9c:	00d70733          	add	a4,a4,a3
80001ba0:	40e40733          	sub	a4,s0,a4
80001ba4:	40b70433          	sub	s0,a4,a1
80001ba8:	02048793          	addi	a5,s1,32
80001bac:	01010713          	addi	a4,sp,16
80001bb0:	00e787b3          	add	a5,a5,a4
80001bb4:	03050513          	addi	a0,a0,48
80001bb8:	fea78423          	sb	a0,-24(a5)
80001bbc:	fffd0d13          	addi	s10,s10,-1
80001bc0:	00148493          	addi	s1,s1,1
80001bc4:	00000a13          	li	s4,0
80001bc8:	060d0a63          	beqz	s10,80001c3c <putld+0x140>
80001bcc:	000b8613          	mv	a2,s7
80001bd0:	000c0693          	mv	a3,s8
80001bd4:	000d8513          	mv	a0,s11
80001bd8:	00040593          	mv	a1,s0
80001bdc:	3d5000ef          	jal	800027b0 <__udivdi3>
80001be0:	018b87b3          	add	a5,s7,s8
80001be4:	0177b733          	sltu	a4,a5,s7
80001be8:	00e787b3          	add	a5,a5,a4
80001bec:	0357f7b3          	remu	a5,a5,s5
80001bf0:	000c0713          	mv	a4,s8
80001bf4:	000b8693          	mv	a3,s7
80001bf8:	40fb87b3          	sub	a5,s7,a5
80001bfc:	00fbbc33          	sltu	s8,s7,a5
80001c00:	41870c33          	sub	s8,a4,s8
80001c04:	033785b3          	mul	a1,a5,s3
80001c08:	039c0c33          	mul	s8,s8,s9
80001c0c:	0397b633          	mulhu	a2,a5,s9
80001c10:	00bc0c33          	add	s8,s8,a1
80001c14:	039787b3          	mul	a5,a5,s9
80001c18:	00cc0c33          	add	s8,s8,a2
80001c1c:	01fc1613          	slli	a2,s8,0x1f
80001c20:	001c5c13          	srli	s8,s8,0x1
80001c24:	0017d793          	srli	a5,a5,0x1
80001c28:	00f66bb3          	or	s7,a2,a5
80001c2c:	f4051ce3          	bnez	a0,80001b84 <putld+0x88>
80001c30:	f60a0ce3          	beqz	s4,80001ba8 <putld+0xac>
80001c34:	fffd0d13          	addi	s10,s10,-1
80001c38:	f80d1ae3          	bnez	s10,80001bcc <putld+0xd0>
80001c3c:	0e0a1063          	bnez	s4,80001d1c <putld+0x220>
80001c40:	01814783          	lbu	a5,24(sp)
80001c44:	00048993          	mv	s3,s1
80001c48:	41f4da13          	srai	s4,s1,0x1f
80001c4c:	00f10c23          	sb	a5,24(sp)
80001c50:	01010713          	addi	a4,sp,16
80001c54:	02048793          	addi	a5,s1,32
80001c58:	00e787b3          	add	a5,a5,a4
80001c5c:	fe078423          	sb	zero,-24(a5)
80001c60:	00c12783          	lw	a5,12(sp)
80001c64:	fff90913          	addi	s2,s2,-1
80001c68:	08078863          	beqz	a5,80001cf8 <putld+0x1fc>
80001c6c:	0e0b1063          	bnez	s6,80001d4c <putld+0x250>
80001c70:	00994a63          	blt	s2,s1,80001c84 <putld+0x188>
80001c74:	03000513          	li	a0,48
80001c78:	fff90913          	addi	s2,s2,-1
80001c7c:	2e9000ef          	jal	80002764 <outbyte>
80001c80:	fe995ae3          	bge	s2,s1,80001c74 <putld+0x178>
80001c84:	0149e7b3          	or	a5,s3,s4
80001c88:	01810493          	addi	s1,sp,24
80001c8c:	00000413          	li	s0,0
80001c90:	00000913          	li	s2,0
80001c94:	02078463          	beqz	a5,80001cbc <putld+0x1c0>
80001c98:	0004c503          	lbu	a0,0(s1)
80001c9c:	00148493          	addi	s1,s1,1
80001ca0:	2c5000ef          	jal	80002764 <outbyte>
80001ca4:	00140793          	addi	a5,s0,1
80001ca8:	0087b733          	sltu	a4,a5,s0
80001cac:	01270933          	add	s2,a4,s2
80001cb0:	00078413          	mv	s0,a5
80001cb4:	fef992e3          	bne	s3,a5,80001c98 <putld+0x19c>
80001cb8:	ff2a10e3          	bne	s4,s2,80001c98 <putld+0x19c>
80001cbc:	06c12083          	lw	ra,108(sp)
80001cc0:	06812403          	lw	s0,104(sp)
80001cc4:	06412483          	lw	s1,100(sp)
80001cc8:	06012903          	lw	s2,96(sp)
80001ccc:	05c12983          	lw	s3,92(sp)
80001cd0:	05812a03          	lw	s4,88(sp)
80001cd4:	05412a83          	lw	s5,84(sp)
80001cd8:	05012b03          	lw	s6,80(sp)
80001cdc:	04c12b83          	lw	s7,76(sp)
80001ce0:	04812c03          	lw	s8,72(sp)
80001ce4:	04412c83          	lw	s9,68(sp)
80001ce8:	04012d03          	lw	s10,64(sp)
80001cec:	03c12d83          	lw	s11,60(sp)
80001cf0:	07010113          	addi	sp,sp,112
80001cf4:	00008067          	ret
80001cf8:	00994a63          	blt	s2,s1,80001d0c <putld+0x210>
80001cfc:	02000513          	li	a0,32
80001d00:	fff90913          	addi	s2,s2,-1
80001d04:	261000ef          	jal	80002764 <outbyte>
80001d08:	fe995ae3          	bge	s2,s1,80001cfc <putld+0x200>
80001d0c:	f60b0ce3          	beqz	s6,80001c84 <putld+0x188>
80001d10:	02d00513          	li	a0,45
80001d14:	251000ef          	jal	80002764 <outbyte>
80001d18:	f6dff06f          	j	80001c84 <putld+0x188>
80001d1c:	00100993          	li	s3,1
80001d20:	00000a13          	li	s4,0
80001d24:	03000793          	li	a5,48
80001d28:	00100493          	li	s1,1
80001d2c:	f21ff06f          	j	80001c4c <putld+0x150>
80001d30:	00a037b3          	snez	a5,a0
80001d34:	40b00433          	neg	s0,a1
80001d38:	fff60913          	addi	s2,a2,-1
80001d3c:	40f40433          	sub	s0,s0,a5
80001d40:	40a00db3          	neg	s11,a0
80001d44:	00100b13          	li	s6,1
80001d48:	e0dff06f          	j	80001b54 <putld+0x58>
80001d4c:	02d00513          	li	a0,45
80001d50:	215000ef          	jal	80002764 <outbyte>
80001d54:	f29950e3          	bge	s2,s1,80001c74 <putld+0x178>
80001d58:	f2dff06f          	j	80001c84 <putld+0x188>

80001d5c <putf>:
80001d5c:	fc010113          	addi	sp,sp,-64
80001d60:	03612023          	sw	s6,32(sp)
80001d64:	01712e23          	sw	s7,28(sp)
80001d68:	01812c23          	sw	s8,24(sp)
80001d6c:	01912a23          	sw	s9,20(sp)
80001d70:	01a12823          	sw	s10,16(sp)
80001d74:	02112e23          	sw	ra,60(sp)
80001d78:	02812c23          	sw	s0,56(sp)
80001d7c:	02912a23          	sw	s1,52(sp)
80001d80:	03212823          	sw	s2,48(sp)
80001d84:	03312623          	sw	s3,44(sp)
80001d88:	03412423          	sw	s4,40(sp)
80001d8c:	00070b13          	mv	s6,a4
80001d90:	00050c93          	mv	s9,a0
80001d94:	00058c13          	mv	s8,a1
80001d98:	00060b93          	mv	s7,a2
80001d9c:	00068d13          	mv	s10,a3
80001da0:	14e05e63          	blez	a4,80001efc <putf+0x1a0>
80001da4:	800057b7          	lui	a5,0x80005
80001da8:	80005737          	lui	a4,0x80005
80001dac:	3c07a983          	lw	s3,960(a5) # 800053c0 <__clzsi2+0x6c>
80001db0:	3c47a903          	lw	s2,964(a5)
80001db4:	800057b7          	lui	a5,0x80005
80001db8:	03512223          	sw	s5,36(sp)
80001dbc:	3b872483          	lw	s1,952(a4) # 800053b8 <__clzsi2+0x64>
80001dc0:	3bc72403          	lw	s0,956(a4)
80001dc4:	3c87aa03          	lw	s4,968(a5) # 800053c8 <__clzsi2+0x74>
80001dc8:	3cc7aa83          	lw	s5,972(a5)
80001dcc:	01b12623          	sw	s11,12(sp)
80001dd0:	00000d93          	li	s11,0
80001dd4:	00098513          	mv	a0,s3
80001dd8:	00090593          	mv	a1,s2
80001ddc:	000a0613          	mv	a2,s4
80001de0:	000a8693          	mv	a3,s5
80001de4:	590010ef          	jal	80003374 <__divdf3>
80001de8:	00050993          	mv	s3,a0
80001dec:	00058913          	mv	s2,a1
80001df0:	00048513          	mv	a0,s1
80001df4:	00040593          	mv	a1,s0
80001df8:	000a0613          	mv	a2,s4
80001dfc:	000a8693          	mv	a3,s5
80001e00:	52d010ef          	jal	80003b2c <__muldf3>
80001e04:	001d8d93          	addi	s11,s11,1
80001e08:	00050493          	mv	s1,a0
80001e0c:	00058413          	mv	s0,a1
80001e10:	fdbb12e3          	bne	s6,s11,80001dd4 <putf+0x78>
80001e14:	02412a83          	lw	s5,36(sp)
80001e18:	00c12d83          	lw	s11,12(sp)
80001e1c:	000c8513          	mv	a0,s9
80001e20:	000c0593          	mv	a1,s8
80001e24:	00000613          	li	a2,0
80001e28:	00000693          	li	a3,0
80001e2c:	425010ef          	jal	80003a50 <__ledf2>
80001e30:	00000a13          	li	s4,0
80001e34:	00055863          	bgez	a0,80001e44 <putf+0xe8>
80001e38:	800007b7          	lui	a5,0x80000
80001e3c:	0187cc33          	xor	s8,a5,s8
80001e40:	00100a13          	li	s4,1
80001e44:	00098613          	mv	a2,s3
80001e48:	00090693          	mv	a3,s2
80001e4c:	000c8513          	mv	a0,s9
80001e50:	000c0593          	mv	a1,s8
80001e54:	58d000ef          	jal	80002be0 <__adddf3>
80001e58:	00058913          	mv	s2,a1
80001e5c:	00050993          	mv	s3,a0
80001e60:	416b8bb3          	sub	s7,s7,s6
80001e64:	261020ef          	jal	800048c4 <__fixunsdfsi>
80001e68:	417005b3          	neg	a1,s7
80001e6c:	41f5d593          	srai	a1,a1,0x1f
80001e70:	fffb8b93          	addi	s7,s7,-1 # 5d89ffff <__heap_size+0x5d892fff>
80001e74:	000a0693          	mv	a3,s4
80001e78:	000d0613          	mv	a2,s10
80001e7c:	00bbf5b3          	and	a1,s7,a1
80001e80:	00050a13          	mv	s4,a0
80001e84:	a1dff0ef          	jal	800018a0 <putd>
80001e88:	02e00513          	li	a0,46
80001e8c:	0d9000ef          	jal	80002764 <outbyte>
80001e90:	000a0513          	mv	a0,s4
80001e94:	2ad020ef          	jal	80004940 <__floatunsidf>
80001e98:	00050613          	mv	a2,a0
80001e9c:	00058693          	mv	a3,a1
80001ea0:	00098513          	mv	a0,s3
80001ea4:	00090593          	mv	a1,s2
80001ea8:	274020ef          	jal	8000411c <__subdf3>
80001eac:	00048613          	mv	a2,s1
80001eb0:	00040693          	mv	a3,s0
80001eb4:	479010ef          	jal	80003b2c <__muldf3>
80001eb8:	309020ef          	jal	800049c0 <__fixunsdfdi>
80001ebc:	03812403          	lw	s0,56(sp)
80001ec0:	03c12083          	lw	ra,60(sp)
80001ec4:	03412483          	lw	s1,52(sp)
80001ec8:	03012903          	lw	s2,48(sp)
80001ecc:	02c12983          	lw	s3,44(sp)
80001ed0:	02812a03          	lw	s4,40(sp)
80001ed4:	01c12b83          	lw	s7,28(sp)
80001ed8:	01812c03          	lw	s8,24(sp)
80001edc:	01412c83          	lw	s9,20(sp)
80001ee0:	01012d03          	lw	s10,16(sp)
80001ee4:	000b0613          	mv	a2,s6
80001ee8:	02012b03          	lw	s6,32(sp)
80001eec:	00100713          	li	a4,1
80001ef0:	00100693          	li	a3,1
80001ef4:	04010113          	addi	sp,sp,64
80001ef8:	c05ff06f          	j	80001afc <putld>
80001efc:	80005737          	lui	a4,0x80005
80001f00:	800057b7          	lui	a5,0x80005
80001f04:	3b872483          	lw	s1,952(a4) # 800053b8 <__clzsi2+0x64>
80001f08:	3bc72403          	lw	s0,956(a4)
80001f0c:	3c07a983          	lw	s3,960(a5) # 800053c0 <__clzsi2+0x6c>
80001f10:	3c47a903          	lw	s2,964(a5)
80001f14:	f09ff06f          	j	80001e1c <putf+0xc0>

80001f18 <printf>:
80001f18:	fa010113          	addi	sp,sp,-96
80001f1c:	02812c23          	sw	s0,56(sp)
80001f20:	04f12a23          	sw	a5,84(sp)
80001f24:	02112e23          	sw	ra,60(sp)
80001f28:	04b12223          	sw	a1,68(sp)
80001f2c:	04c12423          	sw	a2,72(sp)
80001f30:	04d12623          	sw	a3,76(sp)
80001f34:	04e12823          	sw	a4,80(sp)
80001f38:	05012c23          	sw	a6,88(sp)
80001f3c:	05112e23          	sw	a7,92(sp)
80001f40:	00050413          	mv	s0,a0
80001f44:	00054503          	lbu	a0,0(a0)
80001f48:	04410793          	addi	a5,sp,68
80001f4c:	00f12623          	sw	a5,12(sp)
80001f50:	06050263          	beqz	a0,80001fb4 <printf+0x9c>
80001f54:	03312623          	sw	s3,44(sp)
80001f58:	800089b7          	lui	s3,0x80008
80001f5c:	02912a23          	sw	s1,52(sp)
80001f60:	03212823          	sw	s2,48(sp)
80001f64:	03412423          	sw	s4,40(sp)
80001f68:	03512223          	sw	s5,36(sp)
80001f6c:	03612023          	sw	s6,32(sp)
80001f70:	00600493          	li	s1,6
80001f74:	02500913          	li	s2,37
80001f78:	00900b13          	li	s6,9
80001f7c:	02e00a93          	li	s5,46
80001f80:	02000a13          	li	s4,32
80001f84:	11098993          	addi	s3,s3,272 # 80008110 <heap_top+0x2d3c>
80001f88:	05250063          	beq	a0,s2,80001fc8 <printf+0xb0>
80001f8c:	7d8000ef          	jal	80002764 <outbyte>
80001f90:	00144503          	lbu	a0,1(s0)
80001f94:	00140413          	addi	s0,s0,1
80001f98:	fe0518e3          	bnez	a0,80001f88 <printf+0x70>
80001f9c:	03412483          	lw	s1,52(sp)
80001fa0:	03012903          	lw	s2,48(sp)
80001fa4:	02c12983          	lw	s3,44(sp)
80001fa8:	02812a03          	lw	s4,40(sp)
80001fac:	02412a83          	lw	s5,36(sp)
80001fb0:	02012b03          	lw	s6,32(sp)
80001fb4:	03c12083          	lw	ra,60(sp)
80001fb8:	03812403          	lw	s0,56(sp)
80001fbc:	00000513          	li	a0,0
80001fc0:	06010113          	addi	sp,sp,96
80001fc4:	00008067          	ret
80001fc8:	00144703          	lbu	a4,1(s0)
80001fcc:	00000813          	li	a6,0
80001fd0:	00140413          	addi	s0,s0,1
80001fd4:	fd070793          	addi	a5,a4,-48
80001fd8:	0ff7f693          	zext.b	a3,a5
80001fdc:	0017b613          	seqz	a2,a5
80001fe0:	02db6463          	bltu	s6,a3,80002008 <printf+0xf0>
80001fe4:	00144703          	lbu	a4,1(s0)
80001fe8:	00281593          	slli	a1,a6,0x2
80001fec:	010585b3          	add	a1,a1,a6
80001ff0:	00159593          	slli	a1,a1,0x1
80001ff4:	00b78833          	add	a6,a5,a1
80001ff8:	fd070793          	addi	a5,a4,-48
80001ffc:	0ff7f693          	zext.b	a3,a5
80002000:	00140413          	addi	s0,s0,1
80002004:	fedb70e3          	bgeu	s6,a3,80001fe4 <printf+0xcc>
80002008:	f9470713          	addi	a4,a4,-108
8000200c:	00173713          	seqz	a4,a4
80002010:	00e40433          	add	s0,s0,a4
80002014:	00044503          	lbu	a0,0(s0)
80002018:	0f550e63          	beq	a0,s5,80002114 <printf+0x1fc>
8000201c:	fa850793          	addi	a5,a0,-88
80002020:	0ff7f793          	zext.b	a5,a5
80002024:	f6fa64e3          	bltu	s4,a5,80001f8c <printf+0x74>
80002028:	00279793          	slli	a5,a5,0x2
8000202c:	013787b3          	add	a5,a5,s3
80002030:	0007a783          	lw	a5,0(a5)
80002034:	00078067          	jr	a5
80002038:	00c12783          	lw	a5,12(sp)
8000203c:	00000693          	li	a3,0
80002040:	0007a503          	lw	a0,0(a5)
80002044:	00080593          	mv	a1,a6
80002048:	00478793          	addi	a5,a5,4
8000204c:	00f12623          	sw	a5,12(sp)
80002050:	989ff0ef          	jal	800019d8 <putx>
80002054:	f3dff06f          	j	80001f90 <printf+0x78>
80002058:	00c12783          	lw	a5,12(sp)
8000205c:	00000693          	li	a3,0
80002060:	00080593          	mv	a1,a6
80002064:	0007a503          	lw	a0,0(a5)
80002068:	00478793          	addi	a5,a5,4
8000206c:	00f12623          	sw	a5,12(sp)
80002070:	831ff0ef          	jal	800018a0 <putd>
80002074:	f1dff06f          	j	80001f90 <printf+0x78>
80002078:	00c12783          	lw	a5,12(sp)
8000207c:	01712e23          	sw	s7,28(sp)
80002080:	0007ab83          	lw	s7,0(a5)
80002084:	00478793          	addi	a5,a5,4
80002088:	00f12623          	sw	a5,12(sp)
8000208c:	000bc503          	lbu	a0,0(s7)
80002090:	00050a63          	beqz	a0,800020a4 <printf+0x18c>
80002094:	001b8b93          	addi	s7,s7,1
80002098:	6cc000ef          	jal	80002764 <outbyte>
8000209c:	000bc503          	lbu	a0,0(s7)
800020a0:	fe051ae3          	bnez	a0,80002094 <printf+0x17c>
800020a4:	01c12b83          	lw	s7,28(sp)
800020a8:	ee9ff06f          	j	80001f90 <printf+0x78>
800020ac:	00c12783          	lw	a5,12(sp)
800020b0:	00060693          	mv	a3,a2
800020b4:	00048713          	mv	a4,s1
800020b8:	00778793          	addi	a5,a5,7
800020bc:	ff87f793          	andi	a5,a5,-8
800020c0:	0007a503          	lw	a0,0(a5)
800020c4:	0047a583          	lw	a1,4(a5)
800020c8:	00080613          	mv	a2,a6
800020cc:	00878793          	addi	a5,a5,8
800020d0:	00f12623          	sw	a5,12(sp)
800020d4:	c89ff0ef          	jal	80001d5c <putf>
800020d8:	eb9ff06f          	j	80001f90 <printf+0x78>
800020dc:	00c12783          	lw	a5,12(sp)
800020e0:	00080593          	mv	a1,a6
800020e4:	0007a683          	lw	a3,0(a5)
800020e8:	00478793          	addi	a5,a5,4
800020ec:	00f12623          	sw	a5,12(sp)
800020f0:	41f6d793          	srai	a5,a3,0x1f
800020f4:	00d7c533          	xor	a0,a5,a3
800020f8:	40f50533          	sub	a0,a0,a5
800020fc:	01f6d693          	srli	a3,a3,0x1f
80002100:	fa0ff0ef          	jal	800018a0 <putd>
80002104:	e8dff06f          	j	80001f90 <printf+0x78>
80002108:	00c12783          	lw	a5,12(sp)
8000210c:	00100693          	li	a3,1
80002110:	f31ff06f          	j	80002040 <printf+0x128>
80002114:	00144503          	lbu	a0,1(s0)
80002118:	00900793          	li	a5,9
8000211c:	00140413          	addi	s0,s0,1
80002120:	fd050713          	addi	a4,a0,-48
80002124:	0ff77693          	zext.b	a3,a4
80002128:	00000493          	li	s1,0
8000212c:	eed7e8e3          	bltu	a5,a3,8000201c <printf+0x104>
80002130:	00900693          	li	a3,9
80002134:	00144503          	lbu	a0,1(s0)
80002138:	00249793          	slli	a5,s1,0x2
8000213c:	009787b3          	add	a5,a5,s1
80002140:	00179793          	slli	a5,a5,0x1
80002144:	00f704b3          	add	s1,a4,a5
80002148:	fd050713          	addi	a4,a0,-48
8000214c:	0ff77793          	zext.b	a5,a4
80002150:	00140413          	addi	s0,s0,1
80002154:	fef6f0e3          	bgeu	a3,a5,80002134 <printf+0x21c>
80002158:	ec5ff06f          	j	8000201c <printf+0x104>

8000215c <exit>:
8000215c:	fe010113          	addi	sp,sp,-32
80002160:	00112e23          	sw	ra,28(sp)
80002164:	00812c23          	sw	s0,24(sp)
80002168:	02010413          	addi	s0,sp,32
8000216c:	fea42623          	sw	a0,-20(s0)
80002170:	800087b7          	lui	a5,0x80008
80002174:	19478513          	addi	a0,a5,404 # 80008194 <heap_top+0x2dc0>
80002178:	da1ff0ef          	jal	80001f18 <printf>
8000217c:	fec42583          	lw	a1,-20(s0)
80002180:	800087b7          	lui	a5,0x80008
80002184:	1e078513          	addi	a0,a5,480 # 800081e0 <heap_top+0x2e0c>
80002188:	d91ff0ef          	jal	80001f18 <printf>
8000218c:	800087b7          	lui	a5,0x80008
80002190:	20478513          	addi	a0,a5,516 # 80008204 <heap_top+0x2e30>
80002194:	d85ff0ef          	jal	80001f18 <printf>
80002198:	00300513          	li	a0,3
8000219c:	d80ff0ef          	jal	8000171c <putchar>
800021a0:	00000013          	nop
800021a4:	ffdff06f          	j	800021a0 <exit+0x44>

800021a8 <malloc>:
800021a8:	800088b7          	lui	a7,0x80008
800021ac:	80008737          	lui	a4,0x80008
800021b0:	3a08a783          	lw	a5,928(a7) # 800083a0 <curr_top>
800021b4:	39c72583          	lw	a1,924(a4) # 8000839c <heap_end>
800021b8:	00050813          	mv	a6,a0
800021bc:	08b78c63          	beq	a5,a1,80002254 <malloc+0xac>
800021c0:	02b7f263          	bgeu	a5,a1,800021e4 <malloc+0x3c>
800021c4:	0007a703          	lw	a4,0(a5)
800021c8:	00177693          	andi	a3,a4,1
800021cc:	40f70633          	sub	a2,a4,a5
800021d0:	00069463          	bnez	a3,800021d8 <malloc+0x30>
800021d4:	04c86063          	bltu	a6,a2,80002214 <malloc+0x6c>
800021d8:	ffe77793          	andi	a5,a4,-2
800021dc:	feb7e4e3          	bltu	a5,a1,800021c4 <malloc+0x1c>
800021e0:	3a08a783          	lw	a5,928(a7)
800021e4:	80005737          	lui	a4,0x80005
800021e8:	3d472703          	lw	a4,980(a4) # 800053d4 <heap_top>
800021ec:	02f77063          	bgeu	a4,a5,8000220c <malloc+0x64>
800021f0:	00072683          	lw	a3,0(a4)
800021f4:	0016f613          	andi	a2,a3,1
800021f8:	40e685b3          	sub	a1,a3,a4
800021fc:	00061463          	bnez	a2,80002204 <malloc+0x5c>
80002200:	08b86863          	bltu	a6,a1,80002290 <malloc+0xe8>
80002204:	ffe6f713          	andi	a4,a3,-2
80002208:	fef764e3          	bltu	a4,a5,800021f0 <malloc+0x48>
8000220c:	00000513          	li	a0,0
80002210:	00008067          	ret
80002214:	ffe7f593          	andi	a1,a5,-2
80002218:	00387613          	andi	a2,a6,3
8000221c:	00458513          	addi	a0,a1,4
80002220:	06061263          	bnez	a2,80002284 <malloc+0xdc>
80002224:	00480693          	addi	a3,a6,4
80002228:	00c686b3          	add	a3,a3,a2
8000222c:	ffc6f693          	andi	a3,a3,-4
80002230:	00d786b3          	add	a3,a5,a3
80002234:	3ad8a023          	sw	a3,928(a7)
80002238:	00e68463          	beq	a3,a4,80002240 <malloc+0x98>
8000223c:	00e6a023          	sw	a4,0(a3)
80002240:	0016e693          	ori	a3,a3,1
80002244:	00d7a023          	sw	a3,0(a5)
80002248:	ffc00793          	li	a5,-4
8000224c:	f8f58ae3          	beq	a1,a5,800021e0 <malloc+0x38>
80002250:	00008067          	ret
80002254:	800057b7          	lui	a5,0x80005
80002258:	800056b7          	lui	a3,0x80005
8000225c:	3d47a783          	lw	a5,980(a5) # 800053d4 <heap_top>
80002260:	3d06a583          	lw	a1,976(a3) # 800053d0 <heap_size>
80002264:	3af8a023          	sw	a5,928(a7)
80002268:	00b785b3          	add	a1,a5,a1
8000226c:	ff05f593          	andi	a1,a1,-16
80002270:	38b72e23          	sw	a1,924(a4)
80002274:	00b7a023          	sw	a1,0(a5)
80002278:	f4b7e6e3          	bltu	a5,a1,800021c4 <malloc+0x1c>
8000227c:	00000513          	li	a0,0
80002280:	00008067          	ret
80002284:	00400693          	li	a3,4
80002288:	40c68633          	sub	a2,a3,a2
8000228c:	f99ff06f          	j	80002224 <malloc+0x7c>
80002290:	ffe77513          	andi	a0,a4,-2
80002294:	00387613          	andi	a2,a6,3
80002298:	00450513          	addi	a0,a0,4
8000229c:	00060663          	beqz	a2,800022a8 <malloc+0x100>
800022a0:	00400793          	li	a5,4
800022a4:	40c78633          	sub	a2,a5,a2
800022a8:	00480793          	addi	a5,a6,4
800022ac:	00c787b3          	add	a5,a5,a2
800022b0:	ffc7f793          	andi	a5,a5,-4
800022b4:	00f707b3          	add	a5,a4,a5
800022b8:	3af8a023          	sw	a5,928(a7)
800022bc:	00d78463          	beq	a5,a3,800022c4 <malloc+0x11c>
800022c0:	00d7a023          	sw	a3,0(a5)
800022c4:	0017e793          	ori	a5,a5,1
800022c8:	00f72023          	sw	a5,0(a4)
800022cc:	00008067          	ret

800022d0 <free>:
800022d0:	ffc52783          	lw	a5,-4(a0)
800022d4:	ffe7f793          	andi	a5,a5,-2
800022d8:	fef52e23          	sw	a5,-4(a0)
800022dc:	0007a783          	lw	a5,0(a5)
800022e0:	0017f713          	andi	a4,a5,1
800022e4:	00071a63          	bnez	a4,800022f8 <free+0x28>
800022e8:	ffc50713          	addi	a4,a0,-4
800022ec:	fef52e23          	sw	a5,-4(a0)
800022f0:	800087b7          	lui	a5,0x80008
800022f4:	3ae7a023          	sw	a4,928(a5) # 800083a0 <curr_top>
800022f8:	00008067          	ret

800022fc <calloc>:
800022fc:	ff010113          	addi	sp,sp,-16
80002300:	00912423          	sw	s1,8(sp)
80002304:	02b504b3          	mul	s1,a0,a1
80002308:	00112623          	sw	ra,12(sp)
8000230c:	00048513          	mv	a0,s1
80002310:	e99ff0ef          	jal	800021a8 <malloc>
80002314:	00048613          	mv	a2,s1
80002318:	00000593          	li	a1,0
8000231c:	00050493          	mv	s1,a0
80002320:	17c000ef          	jal	8000249c <memset>
80002324:	00c12083          	lw	ra,12(sp)
80002328:	00048513          	mv	a0,s1
8000232c:	00812483          	lw	s1,8(sp)
80002330:	01010113          	addi	sp,sp,16
80002334:	00008067          	ret

80002338 <atoi>:
80002338:	00050793          	mv	a5,a0
8000233c:	02000693          	li	a3,32
80002340:	00900613          	li	a2,9
80002344:	0007c703          	lbu	a4,0(a5)
80002348:	00d70463          	beq	a4,a3,80002350 <atoi+0x18>
8000234c:	00c71663          	bne	a4,a2,80002358 <atoi+0x20>
80002350:	00178793          	addi	a5,a5,1
80002354:	ff1ff06f          	j	80002344 <atoi+0xc>
80002358:	02d00693          	li	a3,45
8000235c:	00100813          	li	a6,1
80002360:	00d71863          	bne	a4,a3,80002370 <atoi+0x38>
80002364:	0017c703          	lbu	a4,1(a5)
80002368:	fff00813          	li	a6,-1
8000236c:	00178793          	addi	a5,a5,1
80002370:	fd070713          	addi	a4,a4,-48
80002374:	0ff77613          	zext.b	a2,a4
80002378:	00900693          	li	a3,9
8000237c:	00000513          	li	a0,0
80002380:	04c6e263          	bltu	a3,a2,800023c4 <atoi+0x8c>
80002384:	0017c603          	lbu	a2,1(a5)
80002388:	00178793          	addi	a5,a5,1
8000238c:	02060e63          	beqz	a2,800023c8 <atoi+0x90>
80002390:	00900513          	li	a0,9
80002394:	0100006f          	j	800023a4 <atoi+0x6c>
80002398:	0007c603          	lbu	a2,0(a5)
8000239c:	00e58733          	add	a4,a1,a4
800023a0:	02060463          	beqz	a2,800023c8 <atoi+0x90>
800023a4:	00271693          	slli	a3,a4,0x2
800023a8:	fd060593          	addi	a1,a2,-48
800023ac:	00e68733          	add	a4,a3,a4
800023b0:	0ff5f693          	zext.b	a3,a1
800023b4:	00178793          	addi	a5,a5,1
800023b8:	00171713          	slli	a4,a4,0x1
800023bc:	fcd57ee3          	bgeu	a0,a3,80002398 <atoi+0x60>
800023c0:	00000513          	li	a0,0
800023c4:	00008067          	ret
800023c8:	02e80533          	mul	a0,a6,a4
800023cc:	00008067          	ret

800023d0 <abs>:
800023d0:	41f55793          	srai	a5,a0,0x1f
800023d4:	00a7c533          	xor	a0,a5,a0
800023d8:	40f50533          	sub	a0,a0,a5
800023dc:	00008067          	ret

800023e0 <srand>:
800023e0:	800087b7          	lui	a5,0x80008
800023e4:	38a7ac23          	sw	a0,920(a5) # 80008398 <rand_seed>
800023e8:	00008067          	ret

800023ec <rand>:
800023ec:	800086b7          	lui	a3,0x80008
800023f0:	3986a783          	lw	a5,920(a3) # 80008398 <rand_seed>
800023f4:	00034737          	lui	a4,0x34
800023f8:	3fd70713          	addi	a4,a4,1021 # 343fd <__heap_size+0x273fd>
800023fc:	02e787b3          	mul	a5,a5,a4
80002400:	0026a737          	lui	a4,0x26a
80002404:	ec370713          	addi	a4,a4,-317 # 269ec3 <__heap_size+0x25cec3>
80002408:	00e787b3          	add	a5,a5,a4
8000240c:	00179513          	slli	a0,a5,0x1
80002410:	38f6ac23          	sw	a5,920(a3)
80002414:	01155513          	srli	a0,a0,0x11
80002418:	00008067          	ret

8000241c <memcpy>:
8000241c:	02060063          	beqz	a2,8000243c <memcpy+0x20>
80002420:	00c50633          	add	a2,a0,a2
80002424:	00050793          	mv	a5,a0
80002428:	0005c703          	lbu	a4,0(a1)
8000242c:	00178793          	addi	a5,a5,1
80002430:	00158593          	addi	a1,a1,1
80002434:	fee78fa3          	sb	a4,-1(a5)
80002438:	fef618e3          	bne	a2,a5,80002428 <memcpy+0xc>
8000243c:	00008067          	ret

80002440 <memmove>:
80002440:	02b56a63          	bltu	a0,a1,80002474 <memmove+0x34>
80002444:	00c587b3          	add	a5,a1,a2
80002448:	02a7e663          	bltu	a5,a0,80002474 <memmove+0x34>
8000244c:	fff60793          	addi	a5,a2,-1
80002450:	0407c263          	bltz	a5,80002494 <memmove+0x54>
80002454:	fff00613          	li	a2,-1
80002458:	00f58733          	add	a4,a1,a5
8000245c:	00074683          	lbu	a3,0(a4)
80002460:	00f50733          	add	a4,a0,a5
80002464:	fff78793          	addi	a5,a5,-1
80002468:	00d70023          	sb	a3,0(a4)
8000246c:	fec796e3          	bne	a5,a2,80002458 <memmove+0x18>
80002470:	00008067          	ret
80002474:	00c506b3          	add	a3,a0,a2
80002478:	00050793          	mv	a5,a0
8000247c:	00060e63          	beqz	a2,80002498 <memmove+0x58>
80002480:	0005c703          	lbu	a4,0(a1)
80002484:	00178793          	addi	a5,a5,1
80002488:	00158593          	addi	a1,a1,1
8000248c:	fee78fa3          	sb	a4,-1(a5)
80002490:	fed798e3          	bne	a5,a3,80002480 <memmove+0x40>
80002494:	00008067          	ret
80002498:	00008067          	ret

8000249c <memset>:
8000249c:	0ff5f593          	zext.b	a1,a1
800024a0:	00c50733          	add	a4,a0,a2
800024a4:	00050793          	mv	a5,a0
800024a8:	00060863          	beqz	a2,800024b8 <memset+0x1c>
800024ac:	00178793          	addi	a5,a5,1
800024b0:	feb78fa3          	sb	a1,-1(a5)
800024b4:	fef71ce3          	bne	a4,a5,800024ac <memset+0x10>
800024b8:	00008067          	ret

800024bc <strlen>:
800024bc:	00054783          	lbu	a5,0(a0)
800024c0:	00050713          	mv	a4,a0
800024c4:	00000513          	li	a0,0
800024c8:	00078c63          	beqz	a5,800024e0 <strlen+0x24>
800024cc:	00150513          	addi	a0,a0,1
800024d0:	00a707b3          	add	a5,a4,a0
800024d4:	0007c783          	lbu	a5,0(a5)
800024d8:	fe079ae3          	bnez	a5,800024cc <strlen+0x10>
800024dc:	00008067          	ret
800024e0:	00008067          	ret

800024e4 <strcpy>:
800024e4:	0005c783          	lbu	a5,0(a1)
800024e8:	00050713          	mv	a4,a0
800024ec:	00078c63          	beqz	a5,80002504 <strcpy+0x20>
800024f0:	00f70023          	sb	a5,0(a4)
800024f4:	0015c783          	lbu	a5,1(a1)
800024f8:	00158593          	addi	a1,a1,1
800024fc:	00170713          	addi	a4,a4,1
80002500:	fe0798e3          	bnez	a5,800024f0 <strcpy+0xc>
80002504:	00070023          	sb	zero,0(a4)
80002508:	00008067          	ret

8000250c <strncpy>:
8000250c:	0005c703          	lbu	a4,0(a1)
80002510:	04070a63          	beqz	a4,80002564 <strncpy+0x58>
80002514:	00050793          	mv	a5,a0
80002518:	00061663          	bnez	a2,80002524 <strncpy+0x18>
8000251c:	00008067          	ret
80002520:	04060063          	beqz	a2,80002560 <strncpy+0x54>
80002524:	00e78023          	sb	a4,0(a5)
80002528:	0015c703          	lbu	a4,1(a1)
8000252c:	00060693          	mv	a3,a2
80002530:	00158593          	addi	a1,a1,1
80002534:	00178793          	addi	a5,a5,1
80002538:	fff60613          	addi	a2,a2,-1
8000253c:	fe0712e3          	bnez	a4,80002520 <strncpy+0x14>
80002540:	ffe68713          	addi	a4,a3,-2
80002544:	00170713          	addi	a4,a4,1
80002548:	00e78733          	add	a4,a5,a4
8000254c:	02060263          	beqz	a2,80002570 <strncpy+0x64>
80002550:	00178793          	addi	a5,a5,1
80002554:	fe078fa3          	sb	zero,-1(a5)
80002558:	fef71ce3          	bne	a4,a5,80002550 <strncpy+0x44>
8000255c:	00008067          	ret
80002560:	00008067          	ret
80002564:	fff60713          	addi	a4,a2,-1
80002568:	00050793          	mv	a5,a0
8000256c:	fd9ff06f          	j	80002544 <strncpy+0x38>
80002570:	00008067          	ret

80002574 <strcat>:
80002574:	00054783          	lbu	a5,0(a0)
80002578:	02078c63          	beqz	a5,800025b0 <strcat+0x3c>
8000257c:	00050793          	mv	a5,a0
80002580:	0017c703          	lbu	a4,1(a5)
80002584:	00178793          	addi	a5,a5,1
80002588:	fe071ce3          	bnez	a4,80002580 <strcat+0xc>
8000258c:	0005c703          	lbu	a4,0(a1)
80002590:	00070c63          	beqz	a4,800025a8 <strcat+0x34>
80002594:	00e78023          	sb	a4,0(a5)
80002598:	0015c703          	lbu	a4,1(a1)
8000259c:	00158593          	addi	a1,a1,1
800025a0:	00178793          	addi	a5,a5,1
800025a4:	fe0718e3          	bnez	a4,80002594 <strcat+0x20>
800025a8:	00078023          	sb	zero,0(a5)
800025ac:	00008067          	ret
800025b0:	00050793          	mv	a5,a0
800025b4:	fd9ff06f          	j	8000258c <strcat+0x18>

800025b8 <strncat>:
800025b8:	00054783          	lbu	a5,0(a0)
800025bc:	04078463          	beqz	a5,80002604 <strncat+0x4c>
800025c0:	00050793          	mv	a5,a0
800025c4:	0017c703          	lbu	a4,1(a5)
800025c8:	00178793          	addi	a5,a5,1
800025cc:	fe071ce3          	bnez	a4,800025c4 <strncat+0xc>
800025d0:	0005c703          	lbu	a4,0(a1)
800025d4:	02070463          	beqz	a4,800025fc <strncat+0x44>
800025d8:	02060263          	beqz	a2,800025fc <strncat+0x44>
800025dc:	00c58633          	add	a2,a1,a2
800025e0:	0080006f          	j	800025e8 <strncat+0x30>
800025e4:	00b60c63          	beq	a2,a1,800025fc <strncat+0x44>
800025e8:	00e78023          	sb	a4,0(a5)
800025ec:	0015c703          	lbu	a4,1(a1)
800025f0:	00158593          	addi	a1,a1,1
800025f4:	00178793          	addi	a5,a5,1
800025f8:	fe0716e3          	bnez	a4,800025e4 <strncat+0x2c>
800025fc:	00078023          	sb	zero,0(a5)
80002600:	00008067          	ret
80002604:	00050793          	mv	a5,a0
80002608:	fc9ff06f          	j	800025d0 <strncat+0x18>

8000260c <strcmp>:
8000260c:	fff50513          	addi	a0,a0,-1
80002610:	fff58593          	addi	a1,a1,-1
80002614:	0080006f          	j	8000261c <strcmp+0x10>
80002618:	02078463          	beqz	a5,80002640 <strcmp+0x34>
8000261c:	00154783          	lbu	a5,1(a0)
80002620:	0015c703          	lbu	a4,1(a1)
80002624:	00150513          	addi	a0,a0,1
80002628:	00158593          	addi	a1,a1,1
8000262c:	fee786e3          	beq	a5,a4,80002618 <strcmp+0xc>
80002630:	00100513          	li	a0,1
80002634:	00e7f463          	bgeu	a5,a4,8000263c <strcmp+0x30>
80002638:	fff00513          	li	a0,-1
8000263c:	00008067          	ret
80002640:	00000513          	li	a0,0
80002644:	00008067          	ret

80002648 <strncmp>:
80002648:	fff60613          	addi	a2,a2,-1
8000264c:	fff58593          	addi	a1,a1,-1
80002650:	00c50633          	add	a2,a0,a2
80002654:	0100006f          	j	80002664 <strncmp+0x1c>
80002658:	02c50663          	beq	a0,a2,80002684 <strncmp+0x3c>
8000265c:	00150513          	addi	a0,a0,1
80002660:	02078263          	beqz	a5,80002684 <strncmp+0x3c>
80002664:	0015c703          	lbu	a4,1(a1)
80002668:	00054783          	lbu	a5,0(a0)
8000266c:	00158593          	addi	a1,a1,1
80002670:	fee784e3          	beq	a5,a4,80002658 <strncmp+0x10>
80002674:	00100513          	li	a0,1
80002678:	00e7f863          	bgeu	a5,a4,80002688 <strncmp+0x40>
8000267c:	fff00513          	li	a0,-1
80002680:	00008067          	ret
80002684:	00000513          	li	a0,0
80002688:	00008067          	ret

8000268c <clock>:
8000268c:	b00026f3          	csrr	a3,mcycle
80002690:	b80027f3          	csrr	a5,mcycleh
80002694:	00100637          	lui	a2,0x100
80002698:	00c79713          	slli	a4,a5,0xc
8000269c:	0146d593          	srli	a1,a3,0x14
800026a0:	fff60613          	addi	a2,a2,-1 # fffff <__heap_size+0xf2fff>
800026a4:	00b765b3          	or	a1,a4,a1
800026a8:	00c5f5b3          	and	a1,a1,a2
800026ac:	00c6f733          	and	a4,a3,a2
800026b0:	0087d513          	srli	a0,a5,0x8
800026b4:	00b70733          	add	a4,a4,a1
800026b8:	00c575b3          	and	a1,a0,a2
800026bc:	00b70733          	add	a4,a4,a1
800026c0:	41f7d613          	srai	a2,a5,0x1f
800026c4:	01c7d513          	srli	a0,a5,0x1c
800026c8:	02167593          	andi	a1,a2,33
800026cc:	00a70733          	add	a4,a4,a0
800026d0:	00b70733          	add	a4,a4,a1
800026d4:	01900593          	li	a1,25
800026d8:	02b77733          	remu	a4,a4,a1
800026dc:	fe867513          	andi	a0,a2,-24
800026e0:	8f5c35b7          	lui	a1,0x8f5c3
800026e4:	c28f6637          	lui	a2,0xc28f6
800026e8:	c2960613          	addi	a2,a2,-983 # c28f5c29 <__stack_top+0x428df859>
800026ec:	8f558593          	addi	a1,a1,-1803 # 8f5c28f5 <__stack_top+0xf5ac525>
800026f0:	00a70733          	add	a4,a4,a0
800026f4:	40e68533          	sub	a0,a3,a4
800026f8:	41f75713          	srai	a4,a4,0x1f
800026fc:	00a6b6b3          	sltu	a3,a3,a0
80002700:	40e787b3          	sub	a5,a5,a4
80002704:	40d787b3          	sub	a5,a5,a3
80002708:	02b505b3          	mul	a1,a0,a1
8000270c:	02c787b3          	mul	a5,a5,a2
80002710:	02c53733          	mulhu	a4,a0,a2
80002714:	00b787b3          	add	a5,a5,a1
80002718:	02c50533          	mul	a0,a0,a2
8000271c:	00e787b3          	add	a5,a5,a4
80002720:	01f7d693          	srli	a3,a5,0x1f
80002724:	00a68733          	add	a4,a3,a0
80002728:	00d73533          	sltu	a0,a4,a3
8000272c:	00f50533          	add	a0,a0,a5
80002730:	00175713          	srli	a4,a4,0x1
80002734:	01f51513          	slli	a0,a0,0x1f
80002738:	00e56533          	or	a0,a0,a4
8000273c:	00008067          	ret

80002740 <inbyte>:
80002740:	c0000737          	lui	a4,0xc0000
80002744:	00870713          	addi	a4,a4,8 # c0000008 <__stack_top+0x3ffe9c38>
80002748:	00072783          	lw	a5,0(a4)
8000274c:	0017f793          	andi	a5,a5,1
80002750:	fe078ce3          	beqz	a5,80002748 <inbyte+0x8>
80002754:	c00007b7          	lui	a5,0xc0000
80002758:	0007a503          	lw	a0,0(a5) # c0000000 <__stack_top+0x3ffe9c30>
8000275c:	0ff57513          	zext.b	a0,a0
80002760:	00008067          	ret

80002764 <outbyte>:
80002764:	00a00793          	li	a5,10
80002768:	02f50263          	beq	a0,a5,8000278c <outbyte+0x28>
8000276c:	c0000737          	lui	a4,0xc0000
80002770:	00870713          	addi	a4,a4,8 # c0000008 <__stack_top+0x3ffe9c38>
80002774:	00072783          	lw	a5,0(a4)
80002778:	0087f793          	andi	a5,a5,8
8000277c:	fe079ce3          	bnez	a5,80002774 <outbyte+0x10>
80002780:	c00007b7          	lui	a5,0xc0000
80002784:	00a7a223          	sw	a0,4(a5) # c0000004 <__stack_top+0x3ffe9c34>
80002788:	00008067          	ret
8000278c:	c0000737          	lui	a4,0xc0000
80002790:	00870713          	addi	a4,a4,8 # c0000008 <__stack_top+0x3ffe9c38>
80002794:	00072783          	lw	a5,0(a4)
80002798:	0087f793          	andi	a5,a5,8
8000279c:	fe079ce3          	bnez	a5,80002794 <outbyte+0x30>
800027a0:	c00007b7          	lui	a5,0xc0000
800027a4:	00d00713          	li	a4,13
800027a8:	00e7a223          	sw	a4,4(a5) # c0000004 <__stack_top+0x3ffe9c34>
800027ac:	fc1ff06f          	j	8000276c <outbyte+0x8>

800027b0 <__udivdi3>:
800027b0:	00050893          	mv	a7,a0
800027b4:	00058313          	mv	t1,a1
800027b8:	00060713          	mv	a4,a2
800027bc:	00050813          	mv	a6,a0
800027c0:	00058793          	mv	a5,a1
800027c4:	28069263          	bnez	a3,80002a48 <__udivdi3+0x298>
800027c8:	800085b7          	lui	a1,0x80008
800027cc:	27858593          	addi	a1,a1,632 # 80008278 <__clz_tab>
800027d0:	0ec37663          	bgeu	t1,a2,800028bc <__udivdi3+0x10c>
800027d4:	000106b7          	lui	a3,0x10
800027d8:	0cd67863          	bgeu	a2,a3,800028a8 <__udivdi3+0xf8>
800027dc:	10063693          	sltiu	a3,a2,256
800027e0:	0016b693          	seqz	a3,a3
800027e4:	00369693          	slli	a3,a3,0x3
800027e8:	00d65533          	srl	a0,a2,a3
800027ec:	00a585b3          	add	a1,a1,a0
800027f0:	0005c583          	lbu	a1,0(a1)
800027f4:	02000513          	li	a0,32
800027f8:	00d586b3          	add	a3,a1,a3
800027fc:	40d505b3          	sub	a1,a0,a3
80002800:	00d50c63          	beq	a0,a3,80002818 <__udivdi3+0x68>
80002804:	00b317b3          	sll	a5,t1,a1
80002808:	00d8d6b3          	srl	a3,a7,a3
8000280c:	00b61733          	sll	a4,a2,a1
80002810:	00f6e7b3          	or	a5,a3,a5
80002814:	00b89833          	sll	a6,a7,a1
80002818:	01075593          	srli	a1,a4,0x10
8000281c:	02b7d333          	divu	t1,a5,a1
80002820:	01071613          	slli	a2,a4,0x10
80002824:	01065613          	srli	a2,a2,0x10
80002828:	02b7f7b3          	remu	a5,a5,a1
8000282c:	00030513          	mv	a0,t1
80002830:	026608b3          	mul	a7,a2,t1
80002834:	01079693          	slli	a3,a5,0x10
80002838:	01085793          	srli	a5,a6,0x10
8000283c:	00d7e7b3          	or	a5,a5,a3
80002840:	0117fe63          	bgeu	a5,a7,8000285c <__udivdi3+0xac>
80002844:	00f707b3          	add	a5,a4,a5
80002848:	fff30513          	addi	a0,t1,-1
8000284c:	00e7e863          	bltu	a5,a4,8000285c <__udivdi3+0xac>
80002850:	0117f663          	bgeu	a5,a7,8000285c <__udivdi3+0xac>
80002854:	ffe30513          	addi	a0,t1,-2
80002858:	00e787b3          	add	a5,a5,a4
8000285c:	411787b3          	sub	a5,a5,a7
80002860:	02b7d8b3          	divu	a7,a5,a1
80002864:	01081813          	slli	a6,a6,0x10
80002868:	01085813          	srli	a6,a6,0x10
8000286c:	02b7f7b3          	remu	a5,a5,a1
80002870:	031606b3          	mul	a3,a2,a7
80002874:	01079793          	slli	a5,a5,0x10
80002878:	00f86833          	or	a6,a6,a5
8000287c:	00088793          	mv	a5,a7
80002880:	00d87c63          	bgeu	a6,a3,80002898 <__udivdi3+0xe8>
80002884:	01070833          	add	a6,a4,a6
80002888:	fff88793          	addi	a5,a7,-1
8000288c:	00e86663          	bltu	a6,a4,80002898 <__udivdi3+0xe8>
80002890:	00d87463          	bgeu	a6,a3,80002898 <__udivdi3+0xe8>
80002894:	ffe88793          	addi	a5,a7,-2
80002898:	01051513          	slli	a0,a0,0x10
8000289c:	00f56533          	or	a0,a0,a5
800028a0:	00000593          	li	a1,0
800028a4:	00008067          	ret
800028a8:	01000537          	lui	a0,0x1000
800028ac:	01800693          	li	a3,24
800028b0:	f2a67ce3          	bgeu	a2,a0,800027e8 <__udivdi3+0x38>
800028b4:	01000693          	li	a3,16
800028b8:	f31ff06f          	j	800027e8 <__udivdi3+0x38>
800028bc:	00000693          	li	a3,0
800028c0:	00060c63          	beqz	a2,800028d8 <__udivdi3+0x128>
800028c4:	000107b7          	lui	a5,0x10
800028c8:	0cf67063          	bgeu	a2,a5,80002988 <__udivdi3+0x1d8>
800028cc:	10063693          	sltiu	a3,a2,256
800028d0:	0016b693          	seqz	a3,a3
800028d4:	00369693          	slli	a3,a3,0x3
800028d8:	00d657b3          	srl	a5,a2,a3
800028dc:	00f585b3          	add	a1,a1,a5
800028e0:	0005c783          	lbu	a5,0(a1)
800028e4:	00d787b3          	add	a5,a5,a3
800028e8:	02000693          	li	a3,32
800028ec:	40f685b3          	sub	a1,a3,a5
800028f0:	0af69663          	bne	a3,a5,8000299c <__udivdi3+0x1ec>
800028f4:	40c307b3          	sub	a5,t1,a2
800028f8:	00100593          	li	a1,1
800028fc:	01075893          	srli	a7,a4,0x10
80002900:	0317de33          	divu	t3,a5,a7
80002904:	01071613          	slli	a2,a4,0x10
80002908:	01065613          	srli	a2,a2,0x10
8000290c:	01085693          	srli	a3,a6,0x10
80002910:	0317f7b3          	remu	a5,a5,a7
80002914:	000e0513          	mv	a0,t3
80002918:	03c60333          	mul	t1,a2,t3
8000291c:	01079793          	slli	a5,a5,0x10
80002920:	00f6e7b3          	or	a5,a3,a5
80002924:	0067fe63          	bgeu	a5,t1,80002940 <__udivdi3+0x190>
80002928:	00f707b3          	add	a5,a4,a5
8000292c:	fffe0513          	addi	a0,t3,-1
80002930:	00e7e863          	bltu	a5,a4,80002940 <__udivdi3+0x190>
80002934:	0067f663          	bgeu	a5,t1,80002940 <__udivdi3+0x190>
80002938:	ffee0513          	addi	a0,t3,-2
8000293c:	00e787b3          	add	a5,a5,a4
80002940:	406787b3          	sub	a5,a5,t1
80002944:	0317d333          	divu	t1,a5,a7
80002948:	01081813          	slli	a6,a6,0x10
8000294c:	01085813          	srli	a6,a6,0x10
80002950:	0317f7b3          	remu	a5,a5,a7
80002954:	026606b3          	mul	a3,a2,t1
80002958:	01079793          	slli	a5,a5,0x10
8000295c:	00f86833          	or	a6,a6,a5
80002960:	00030793          	mv	a5,t1
80002964:	00d87c63          	bgeu	a6,a3,8000297c <__udivdi3+0x1cc>
80002968:	01070833          	add	a6,a4,a6
8000296c:	fff30793          	addi	a5,t1,-1
80002970:	00e86663          	bltu	a6,a4,8000297c <__udivdi3+0x1cc>
80002974:	00d87463          	bgeu	a6,a3,8000297c <__udivdi3+0x1cc>
80002978:	ffe30793          	addi	a5,t1,-2
8000297c:	01051513          	slli	a0,a0,0x10
80002980:	00f56533          	or	a0,a0,a5
80002984:	00008067          	ret
80002988:	010007b7          	lui	a5,0x1000
8000298c:	01800693          	li	a3,24
80002990:	f4f674e3          	bgeu	a2,a5,800028d8 <__udivdi3+0x128>
80002994:	01000693          	li	a3,16
80002998:	f41ff06f          	j	800028d8 <__udivdi3+0x128>
8000299c:	00b61733          	sll	a4,a2,a1
800029a0:	00f356b3          	srl	a3,t1,a5
800029a4:	01075513          	srli	a0,a4,0x10
800029a8:	00b31333          	sll	t1,t1,a1
800029ac:	00f8d7b3          	srl	a5,a7,a5
800029b0:	0067e7b3          	or	a5,a5,t1
800029b4:	02a6d333          	divu	t1,a3,a0
800029b8:	01071613          	slli	a2,a4,0x10
800029bc:	01065613          	srli	a2,a2,0x10
800029c0:	00b89833          	sll	a6,a7,a1
800029c4:	02a6f6b3          	remu	a3,a3,a0
800029c8:	026608b3          	mul	a7,a2,t1
800029cc:	01069593          	slli	a1,a3,0x10
800029d0:	0107d693          	srli	a3,a5,0x10
800029d4:	00b6e6b3          	or	a3,a3,a1
800029d8:	00030593          	mv	a1,t1
800029dc:	0116fe63          	bgeu	a3,a7,800029f8 <__udivdi3+0x248>
800029e0:	00d706b3          	add	a3,a4,a3
800029e4:	fff30593          	addi	a1,t1,-1
800029e8:	00e6e863          	bltu	a3,a4,800029f8 <__udivdi3+0x248>
800029ec:	0116f663          	bgeu	a3,a7,800029f8 <__udivdi3+0x248>
800029f0:	ffe30593          	addi	a1,t1,-2
800029f4:	00e686b3          	add	a3,a3,a4
800029f8:	411686b3          	sub	a3,a3,a7
800029fc:	02a6d8b3          	divu	a7,a3,a0
80002a00:	01079793          	slli	a5,a5,0x10
80002a04:	0107d793          	srli	a5,a5,0x10
80002a08:	02a6f6b3          	remu	a3,a3,a0
80002a0c:	03160633          	mul	a2,a2,a7
80002a10:	01069693          	slli	a3,a3,0x10
80002a14:	00d7e7b3          	or	a5,a5,a3
80002a18:	00088693          	mv	a3,a7
80002a1c:	00c7fe63          	bgeu	a5,a2,80002a38 <__udivdi3+0x288>
80002a20:	00f707b3          	add	a5,a4,a5
80002a24:	fff88693          	addi	a3,a7,-1
80002a28:	00e7e863          	bltu	a5,a4,80002a38 <__udivdi3+0x288>
80002a2c:	00c7f663          	bgeu	a5,a2,80002a38 <__udivdi3+0x288>
80002a30:	ffe88693          	addi	a3,a7,-2
80002a34:	00e787b3          	add	a5,a5,a4
80002a38:	01059593          	slli	a1,a1,0x10
80002a3c:	40c787b3          	sub	a5,a5,a2
80002a40:	00d5e5b3          	or	a1,a1,a3
80002a44:	eb9ff06f          	j	800028fc <__udivdi3+0x14c>
80002a48:	18d5e663          	bltu	a1,a3,80002bd4 <__udivdi3+0x424>
80002a4c:	000107b7          	lui	a5,0x10
80002a50:	04f6f463          	bgeu	a3,a5,80002a98 <__udivdi3+0x2e8>
80002a54:	1006b713          	sltiu	a4,a3,256
80002a58:	00173713          	seqz	a4,a4
80002a5c:	00371713          	slli	a4,a4,0x3
80002a60:	800087b7          	lui	a5,0x80008
80002a64:	00e6d5b3          	srl	a1,a3,a4
80002a68:	27878793          	addi	a5,a5,632 # 80008278 <__clz_tab>
80002a6c:	00b787b3          	add	a5,a5,a1
80002a70:	0007c783          	lbu	a5,0(a5)
80002a74:	00e787b3          	add	a5,a5,a4
80002a78:	02000713          	li	a4,32
80002a7c:	40f705b3          	sub	a1,a4,a5
80002a80:	02f71663          	bne	a4,a5,80002aac <__udivdi3+0x2fc>
80002a84:	00100513          	li	a0,1
80002a88:	e066eee3          	bltu	a3,t1,800028a4 <__udivdi3+0xf4>
80002a8c:	00c8b533          	sltu	a0,a7,a2
80002a90:	00153513          	seqz	a0,a0
80002a94:	00008067          	ret
80002a98:	010007b7          	lui	a5,0x1000
80002a9c:	01800713          	li	a4,24
80002aa0:	fcf6f0e3          	bgeu	a3,a5,80002a60 <__udivdi3+0x2b0>
80002aa4:	01000713          	li	a4,16
80002aa8:	fb9ff06f          	j	80002a60 <__udivdi3+0x2b0>
80002aac:	00f65733          	srl	a4,a2,a5
80002ab0:	00b696b3          	sll	a3,a3,a1
80002ab4:	00d766b3          	or	a3,a4,a3
80002ab8:	00f35733          	srl	a4,t1,a5
80002abc:	00b31333          	sll	t1,t1,a1
80002ac0:	00f8d7b3          	srl	a5,a7,a5
80002ac4:	0067e7b3          	or	a5,a5,t1
80002ac8:	0106d313          	srli	t1,a3,0x10
80002acc:	02675eb3          	divu	t4,a4,t1
80002ad0:	01069813          	slli	a6,a3,0x10
80002ad4:	01085813          	srli	a6,a6,0x10
80002ad8:	00b61633          	sll	a2,a2,a1
80002adc:	02677733          	remu	a4,a4,t1
80002ae0:	03d80e33          	mul	t3,a6,t4
80002ae4:	01071513          	slli	a0,a4,0x10
80002ae8:	0107d713          	srli	a4,a5,0x10
80002aec:	00a76733          	or	a4,a4,a0
80002af0:	000e8513          	mv	a0,t4
80002af4:	01c77e63          	bgeu	a4,t3,80002b10 <__udivdi3+0x360>
80002af8:	00e68733          	add	a4,a3,a4
80002afc:	fffe8513          	addi	a0,t4,-1
80002b00:	00d76863          	bltu	a4,a3,80002b10 <__udivdi3+0x360>
80002b04:	01c77663          	bgeu	a4,t3,80002b10 <__udivdi3+0x360>
80002b08:	ffee8513          	addi	a0,t4,-2
80002b0c:	00d70733          	add	a4,a4,a3
80002b10:	41c70733          	sub	a4,a4,t3
80002b14:	02675e33          	divu	t3,a4,t1
80002b18:	01079793          	slli	a5,a5,0x10
80002b1c:	0107d793          	srli	a5,a5,0x10
80002b20:	02677733          	remu	a4,a4,t1
80002b24:	03c80833          	mul	a6,a6,t3
80002b28:	01071713          	slli	a4,a4,0x10
80002b2c:	00e7e7b3          	or	a5,a5,a4
80002b30:	000e0713          	mv	a4,t3
80002b34:	0107fe63          	bgeu	a5,a6,80002b50 <__udivdi3+0x3a0>
80002b38:	00f687b3          	add	a5,a3,a5
80002b3c:	fffe0713          	addi	a4,t3,-1
80002b40:	00d7e863          	bltu	a5,a3,80002b50 <__udivdi3+0x3a0>
80002b44:	0107f663          	bgeu	a5,a6,80002b50 <__udivdi3+0x3a0>
80002b48:	ffee0713          	addi	a4,t3,-2
80002b4c:	00d787b3          	add	a5,a5,a3
80002b50:	01051513          	slli	a0,a0,0x10
80002b54:	00010e37          	lui	t3,0x10
80002b58:	00e56533          	or	a0,a0,a4
80002b5c:	fffe0693          	addi	a3,t3,-1 # ffff <__heap_size+0x2fff>
80002b60:	00d57733          	and	a4,a0,a3
80002b64:	410787b3          	sub	a5,a5,a6
80002b68:	00d676b3          	and	a3,a2,a3
80002b6c:	01055813          	srli	a6,a0,0x10
80002b70:	01065613          	srli	a2,a2,0x10
80002b74:	02d70333          	mul	t1,a4,a3
80002b78:	02d806b3          	mul	a3,a6,a3
80002b7c:	02c70733          	mul	a4,a4,a2
80002b80:	02c80833          	mul	a6,a6,a2
80002b84:	00d70633          	add	a2,a4,a3
80002b88:	01035713          	srli	a4,t1,0x10
80002b8c:	00c70733          	add	a4,a4,a2
80002b90:	00d77463          	bgeu	a4,a3,80002b98 <__udivdi3+0x3e8>
80002b94:	01c80833          	add	a6,a6,t3
80002b98:	01075693          	srli	a3,a4,0x10
80002b9c:	010686b3          	add	a3,a3,a6
80002ba0:	02d7e663          	bltu	a5,a3,80002bcc <__udivdi3+0x41c>
80002ba4:	ced79ee3          	bne	a5,a3,800028a0 <__udivdi3+0xf0>
80002ba8:	000107b7          	lui	a5,0x10
80002bac:	fff78793          	addi	a5,a5,-1 # ffff <__heap_size+0x2fff>
80002bb0:	00f77733          	and	a4,a4,a5
80002bb4:	01071713          	slli	a4,a4,0x10
80002bb8:	00f37333          	and	t1,t1,a5
80002bbc:	00b898b3          	sll	a7,a7,a1
80002bc0:	00670733          	add	a4,a4,t1
80002bc4:	00000593          	li	a1,0
80002bc8:	cce8fee3          	bgeu	a7,a4,800028a4 <__udivdi3+0xf4>
80002bcc:	fff50513          	addi	a0,a0,-1 # ffffff <__heap_size+0xff2fff>
80002bd0:	cd1ff06f          	j	800028a0 <__udivdi3+0xf0>
80002bd4:	00000593          	li	a1,0
80002bd8:	00000513          	li	a0,0
80002bdc:	00008067          	ret

80002be0 <__adddf3>:
80002be0:	00100837          	lui	a6,0x100
80002be4:	fff80813          	addi	a6,a6,-1 # fffff <__heap_size+0xf2fff>
80002be8:	fe010113          	addi	sp,sp,-32
80002bec:	00b878b3          	and	a7,a6,a1
80002bf0:	0145d713          	srli	a4,a1,0x14
80002bf4:	01d55793          	srli	a5,a0,0x1d
80002bf8:	00d87833          	and	a6,a6,a3
80002bfc:	00912a23          	sw	s1,20(sp)
80002c00:	7ff77493          	andi	s1,a4,2047
80002c04:	00389713          	slli	a4,a7,0x3
80002c08:	0146d893          	srli	a7,a3,0x14
80002c0c:	00381813          	slli	a6,a6,0x3
80002c10:	01212823          	sw	s2,16(sp)
80002c14:	00e7e7b3          	or	a5,a5,a4
80002c18:	7ff8f893          	andi	a7,a7,2047
80002c1c:	01d65713          	srli	a4,a2,0x1d
80002c20:	00112e23          	sw	ra,28(sp)
80002c24:	00812c23          	sw	s0,24(sp)
80002c28:	01312623          	sw	s3,12(sp)
80002c2c:	01f5d913          	srli	s2,a1,0x1f
80002c30:	01f6d693          	srli	a3,a3,0x1f
80002c34:	01076733          	or	a4,a4,a6
80002c38:	00351513          	slli	a0,a0,0x3
80002c3c:	00361613          	slli	a2,a2,0x3
80002c40:	41148833          	sub	a6,s1,a7
80002c44:	2ad91a63          	bne	s2,a3,80002ef8 <__adddf3+0x318>
80002c48:	11005c63          	blez	a6,80002d60 <__adddf3+0x180>
80002c4c:	04089063          	bnez	a7,80002c8c <__adddf3+0xac>
80002c50:	00c766b3          	or	a3,a4,a2
80002c54:	66068063          	beqz	a3,800032b4 <__adddf3+0x6d4>
80002c58:	fff80593          	addi	a1,a6,-1
80002c5c:	02059063          	bnez	a1,80002c7c <__adddf3+0x9c>
80002c60:	00c50633          	add	a2,a0,a2
80002c64:	00a636b3          	sltu	a3,a2,a0
80002c68:	00e78733          	add	a4,a5,a4
80002c6c:	00060513          	mv	a0,a2
80002c70:	00d707b3          	add	a5,a4,a3
80002c74:	00100493          	li	s1,1
80002c78:	06c0006f          	j	80002ce4 <__adddf3+0x104>
80002c7c:	7ff00693          	li	a3,2047
80002c80:	02d81063          	bne	a6,a3,80002ca0 <__adddf3+0xc0>
80002c84:	7ff00493          	li	s1,2047
80002c88:	1f80006f          	j	80002e80 <__adddf3+0x2a0>
80002c8c:	7ff00693          	li	a3,2047
80002c90:	1ed48863          	beq	s1,a3,80002e80 <__adddf3+0x2a0>
80002c94:	008006b7          	lui	a3,0x800
80002c98:	00d76733          	or	a4,a4,a3
80002c9c:	00080593          	mv	a1,a6
80002ca0:	03800693          	li	a3,56
80002ca4:	0ab6c863          	blt	a3,a1,80002d54 <__adddf3+0x174>
80002ca8:	01f00693          	li	a3,31
80002cac:	06b6ca63          	blt	a3,a1,80002d20 <__adddf3+0x140>
80002cb0:	02000813          	li	a6,32
80002cb4:	40b80833          	sub	a6,a6,a1
80002cb8:	010716b3          	sll	a3,a4,a6
80002cbc:	00b658b3          	srl	a7,a2,a1
80002cc0:	01061833          	sll	a6,a2,a6
80002cc4:	0116e6b3          	or	a3,a3,a7
80002cc8:	01003833          	snez	a6,a6
80002ccc:	0106e6b3          	or	a3,a3,a6
80002cd0:	00b755b3          	srl	a1,a4,a1
80002cd4:	00a68533          	add	a0,a3,a0
80002cd8:	00f585b3          	add	a1,a1,a5
80002cdc:	00d536b3          	sltu	a3,a0,a3
80002ce0:	00d587b3          	add	a5,a1,a3
80002ce4:	00879713          	slli	a4,a5,0x8
80002ce8:	18075c63          	bgez	a4,80002e80 <__adddf3+0x2a0>
80002cec:	00148493          	addi	s1,s1,1
80002cf0:	7ff00713          	li	a4,2047
80002cf4:	5ae48a63          	beq	s1,a4,800032a8 <__adddf3+0x6c8>
80002cf8:	ff800737          	lui	a4,0xff800
80002cfc:	fff70713          	addi	a4,a4,-1 # ff7fffff <__stack_top+0x7f7e9c2f>
80002d00:	00e7f733          	and	a4,a5,a4
80002d04:	00155793          	srli	a5,a0,0x1
80002d08:	00157513          	andi	a0,a0,1
80002d0c:	00a7e7b3          	or	a5,a5,a0
80002d10:	01f71513          	slli	a0,a4,0x1f
80002d14:	00f56533          	or	a0,a0,a5
80002d18:	00175793          	srli	a5,a4,0x1
80002d1c:	1640006f          	j	80002e80 <__adddf3+0x2a0>
80002d20:	fe058693          	addi	a3,a1,-32
80002d24:	02000893          	li	a7,32
80002d28:	00d756b3          	srl	a3,a4,a3
80002d2c:	00000813          	li	a6,0
80002d30:	01158863          	beq	a1,a7,80002d40 <__adddf3+0x160>
80002d34:	04000813          	li	a6,64
80002d38:	40b80833          	sub	a6,a6,a1
80002d3c:	01071833          	sll	a6,a4,a6
80002d40:	00c86833          	or	a6,a6,a2
80002d44:	01003833          	snez	a6,a6
80002d48:	0106e6b3          	or	a3,a3,a6
80002d4c:	00000593          	li	a1,0
80002d50:	f85ff06f          	j	80002cd4 <__adddf3+0xf4>
80002d54:	00c766b3          	or	a3,a4,a2
80002d58:	00d036b3          	snez	a3,a3
80002d5c:	ff1ff06f          	j	80002d4c <__adddf3+0x16c>
80002d60:	0c080a63          	beqz	a6,80002e34 <__adddf3+0x254>
80002d64:	409886b3          	sub	a3,a7,s1
80002d68:	02049463          	bnez	s1,80002d90 <__adddf3+0x1b0>
80002d6c:	00a7e5b3          	or	a1,a5,a0
80002d70:	50058e63          	beqz	a1,8000328c <__adddf3+0x6ac>
80002d74:	fff68593          	addi	a1,a3,-1 # 7fffff <__heap_size+0x7f2fff>
80002d78:	ee0584e3          	beqz	a1,80002c60 <__adddf3+0x80>
80002d7c:	7ff00813          	li	a6,2047
80002d80:	03069263          	bne	a3,a6,80002da4 <__adddf3+0x1c4>
80002d84:	00070793          	mv	a5,a4
80002d88:	00060513          	mv	a0,a2
80002d8c:	ef9ff06f          	j	80002c84 <__adddf3+0xa4>
80002d90:	7ff00593          	li	a1,2047
80002d94:	feb888e3          	beq	a7,a1,80002d84 <__adddf3+0x1a4>
80002d98:	008005b7          	lui	a1,0x800
80002d9c:	00b7e7b3          	or	a5,a5,a1
80002da0:	00068593          	mv	a1,a3
80002da4:	03800693          	li	a3,56
80002da8:	08b6c063          	blt	a3,a1,80002e28 <__adddf3+0x248>
80002dac:	01f00693          	li	a3,31
80002db0:	04b6c263          	blt	a3,a1,80002df4 <__adddf3+0x214>
80002db4:	02000813          	li	a6,32
80002db8:	40b80833          	sub	a6,a6,a1
80002dbc:	010796b3          	sll	a3,a5,a6
80002dc0:	00b55333          	srl	t1,a0,a1
80002dc4:	01051833          	sll	a6,a0,a6
80002dc8:	0066e6b3          	or	a3,a3,t1
80002dcc:	01003833          	snez	a6,a6
80002dd0:	0106e6b3          	or	a3,a3,a6
80002dd4:	00b7d5b3          	srl	a1,a5,a1
80002dd8:	00c68633          	add	a2,a3,a2
80002ddc:	00e585b3          	add	a1,a1,a4
80002de0:	00d636b3          	sltu	a3,a2,a3
80002de4:	00060513          	mv	a0,a2
80002de8:	00d587b3          	add	a5,a1,a3
80002dec:	00088493          	mv	s1,a7
80002df0:	ef5ff06f          	j	80002ce4 <__adddf3+0x104>
80002df4:	fe058693          	addi	a3,a1,-32 # 7fffe0 <__heap_size+0x7f2fe0>
80002df8:	02000313          	li	t1,32
80002dfc:	00d7d6b3          	srl	a3,a5,a3
80002e00:	00000813          	li	a6,0
80002e04:	00658863          	beq	a1,t1,80002e14 <__adddf3+0x234>
80002e08:	04000813          	li	a6,64
80002e0c:	40b80833          	sub	a6,a6,a1
80002e10:	01079833          	sll	a6,a5,a6
80002e14:	00a86833          	or	a6,a6,a0
80002e18:	01003833          	snez	a6,a6
80002e1c:	0106e6b3          	or	a3,a3,a6
80002e20:	00000593          	li	a1,0
80002e24:	fb5ff06f          	j	80002dd8 <__adddf3+0x1f8>
80002e28:	00a7e6b3          	or	a3,a5,a0
80002e2c:	00d036b3          	snez	a3,a3
80002e30:	ff1ff06f          	j	80002e20 <__adddf3+0x240>
80002e34:	00148693          	addi	a3,s1,1
80002e38:	7fe6f593          	andi	a1,a3,2046
80002e3c:	08059663          	bnez	a1,80002ec8 <__adddf3+0x2e8>
80002e40:	00a7e6b3          	or	a3,a5,a0
80002e44:	06049263          	bnez	s1,80002ea8 <__adddf3+0x2c8>
80002e48:	44068863          	beqz	a3,80003298 <__adddf3+0x6b8>
80002e4c:	00c766b3          	or	a3,a4,a2
80002e50:	02068863          	beqz	a3,80002e80 <__adddf3+0x2a0>
80002e54:	00c50633          	add	a2,a0,a2
80002e58:	00a636b3          	sltu	a3,a2,a0
80002e5c:	00e78733          	add	a4,a5,a4
80002e60:	00d707b3          	add	a5,a4,a3
80002e64:	00879713          	slli	a4,a5,0x8
80002e68:	00060513          	mv	a0,a2
80002e6c:	00075a63          	bgez	a4,80002e80 <__adddf3+0x2a0>
80002e70:	ff800737          	lui	a4,0xff800
80002e74:	fff70713          	addi	a4,a4,-1 # ff7fffff <__stack_top+0x7f7e9c2f>
80002e78:	00e7f7b3          	and	a5,a5,a4
80002e7c:	00100493          	li	s1,1
80002e80:	00757713          	andi	a4,a0,7
80002e84:	44070863          	beqz	a4,800032d4 <__adddf3+0x6f4>
80002e88:	00f57713          	andi	a4,a0,15
80002e8c:	00400693          	li	a3,4
80002e90:	44d70263          	beq	a4,a3,800032d4 <__adddf3+0x6f4>
80002e94:	00450713          	addi	a4,a0,4
80002e98:	00a736b3          	sltu	a3,a4,a0
80002e9c:	00d787b3          	add	a5,a5,a3
80002ea0:	00070513          	mv	a0,a4
80002ea4:	4300006f          	j	800032d4 <__adddf3+0x6f4>
80002ea8:	ec068ee3          	beqz	a3,80002d84 <__adddf3+0x1a4>
80002eac:	00c76633          	or	a2,a4,a2
80002eb0:	dc060ae3          	beqz	a2,80002c84 <__adddf3+0xa4>
80002eb4:	00000913          	li	s2,0
80002eb8:	004007b7          	lui	a5,0x400
80002ebc:	00000513          	li	a0,0
80002ec0:	7ff00493          	li	s1,2047
80002ec4:	4100006f          	j	800032d4 <__adddf3+0x6f4>
80002ec8:	7ff00593          	li	a1,2047
80002ecc:	3cb68c63          	beq	a3,a1,800032a4 <__adddf3+0x6c4>
80002ed0:	00c50633          	add	a2,a0,a2
80002ed4:	00a63533          	sltu	a0,a2,a0
80002ed8:	00e78733          	add	a4,a5,a4
80002edc:	00a70733          	add	a4,a4,a0
80002ee0:	01f71513          	slli	a0,a4,0x1f
80002ee4:	00165613          	srli	a2,a2,0x1
80002ee8:	00c56533          	or	a0,a0,a2
80002eec:	00175793          	srli	a5,a4,0x1
80002ef0:	00068493          	mv	s1,a3
80002ef4:	f8dff06f          	j	80002e80 <__adddf3+0x2a0>
80002ef8:	0f005c63          	blez	a6,80002ff0 <__adddf3+0x410>
80002efc:	08089e63          	bnez	a7,80002f98 <__adddf3+0x3b8>
80002f00:	00c766b3          	or	a3,a4,a2
80002f04:	3a068863          	beqz	a3,800032b4 <__adddf3+0x6d4>
80002f08:	fff80693          	addi	a3,a6,-1
80002f0c:	02069063          	bnez	a3,80002f2c <__adddf3+0x34c>
80002f10:	40c50633          	sub	a2,a0,a2
80002f14:	00c536b3          	sltu	a3,a0,a2
80002f18:	40e78733          	sub	a4,a5,a4
80002f1c:	00060513          	mv	a0,a2
80002f20:	40d707b3          	sub	a5,a4,a3
80002f24:	00100493          	li	s1,1
80002f28:	0540006f          	j	80002f7c <__adddf3+0x39c>
80002f2c:	7ff00593          	li	a1,2047
80002f30:	d4b80ae3          	beq	a6,a1,80002c84 <__adddf3+0xa4>
80002f34:	03800593          	li	a1,56
80002f38:	0ad5c663          	blt	a1,a3,80002fe4 <__adddf3+0x404>
80002f3c:	01f00593          	li	a1,31
80002f40:	06d5c863          	blt	a1,a3,80002fb0 <__adddf3+0x3d0>
80002f44:	02000813          	li	a6,32
80002f48:	40d80833          	sub	a6,a6,a3
80002f4c:	00d658b3          	srl	a7,a2,a3
80002f50:	010715b3          	sll	a1,a4,a6
80002f54:	01061833          	sll	a6,a2,a6
80002f58:	0115e5b3          	or	a1,a1,a7
80002f5c:	01003833          	snez	a6,a6
80002f60:	0105e633          	or	a2,a1,a6
80002f64:	00d756b3          	srl	a3,a4,a3
80002f68:	40c50633          	sub	a2,a0,a2
80002f6c:	00c53733          	sltu	a4,a0,a2
80002f70:	40d786b3          	sub	a3,a5,a3
80002f74:	00060513          	mv	a0,a2
80002f78:	40e687b3          	sub	a5,a3,a4
80002f7c:	00879713          	slli	a4,a5,0x8
80002f80:	f00750e3          	bgez	a4,80002e80 <__adddf3+0x2a0>
80002f84:	00800437          	lui	s0,0x800
80002f88:	fff40413          	addi	s0,s0,-1 # 7fffff <__heap_size+0x7f2fff>
80002f8c:	0087f433          	and	s0,a5,s0
80002f90:	00050993          	mv	s3,a0
80002f94:	2100006f          	j	800031a4 <__adddf3+0x5c4>
80002f98:	7ff00693          	li	a3,2047
80002f9c:	eed482e3          	beq	s1,a3,80002e80 <__adddf3+0x2a0>
80002fa0:	008006b7          	lui	a3,0x800
80002fa4:	00d76733          	or	a4,a4,a3
80002fa8:	00080693          	mv	a3,a6
80002fac:	f89ff06f          	j	80002f34 <__adddf3+0x354>
80002fb0:	fe068593          	addi	a1,a3,-32 # 7fffe0 <__heap_size+0x7f2fe0>
80002fb4:	02000893          	li	a7,32
80002fb8:	00b755b3          	srl	a1,a4,a1
80002fbc:	00000813          	li	a6,0
80002fc0:	01168863          	beq	a3,a7,80002fd0 <__adddf3+0x3f0>
80002fc4:	04000813          	li	a6,64
80002fc8:	40d80833          	sub	a6,a6,a3
80002fcc:	01071833          	sll	a6,a4,a6
80002fd0:	00c86833          	or	a6,a6,a2
80002fd4:	01003833          	snez	a6,a6
80002fd8:	0105e633          	or	a2,a1,a6
80002fdc:	00000693          	li	a3,0
80002fe0:	f89ff06f          	j	80002f68 <__adddf3+0x388>
80002fe4:	00c76633          	or	a2,a4,a2
80002fe8:	00c03633          	snez	a2,a2
80002fec:	ff1ff06f          	j	80002fdc <__adddf3+0x3fc>
80002ff0:	0e080863          	beqz	a6,800030e0 <__adddf3+0x500>
80002ff4:	40988833          	sub	a6,a7,s1
80002ff8:	04049263          	bnez	s1,8000303c <__adddf3+0x45c>
80002ffc:	00a7e5b3          	or	a1,a5,a0
80003000:	2a058e63          	beqz	a1,800032bc <__adddf3+0x6dc>
80003004:	fff80593          	addi	a1,a6,-1
80003008:	00059e63          	bnez	a1,80003024 <__adddf3+0x444>
8000300c:	40a60533          	sub	a0,a2,a0
80003010:	40f70733          	sub	a4,a4,a5
80003014:	00a63633          	sltu	a2,a2,a0
80003018:	40c707b3          	sub	a5,a4,a2
8000301c:	00068913          	mv	s2,a3
80003020:	f05ff06f          	j	80002f24 <__adddf3+0x344>
80003024:	7ff00313          	li	t1,2047
80003028:	02681463          	bne	a6,t1,80003050 <__adddf3+0x470>
8000302c:	00070793          	mv	a5,a4
80003030:	00060513          	mv	a0,a2
80003034:	7ff00493          	li	s1,2047
80003038:	0d00006f          	j	80003108 <__adddf3+0x528>
8000303c:	7ff00593          	li	a1,2047
80003040:	feb886e3          	beq	a7,a1,8000302c <__adddf3+0x44c>
80003044:	008005b7          	lui	a1,0x800
80003048:	00b7e7b3          	or	a5,a5,a1
8000304c:	00080593          	mv	a1,a6
80003050:	03800813          	li	a6,56
80003054:	08b84063          	blt	a6,a1,800030d4 <__adddf3+0x4f4>
80003058:	01f00813          	li	a6,31
8000305c:	04b84263          	blt	a6,a1,800030a0 <__adddf3+0x4c0>
80003060:	02000313          	li	t1,32
80003064:	40b30333          	sub	t1,t1,a1
80003068:	00b55e33          	srl	t3,a0,a1
8000306c:	00679833          	sll	a6,a5,t1
80003070:	00651333          	sll	t1,a0,t1
80003074:	01c86833          	or	a6,a6,t3
80003078:	00603333          	snez	t1,t1
8000307c:	00686533          	or	a0,a6,t1
80003080:	00b7d5b3          	srl	a1,a5,a1
80003084:	40a60533          	sub	a0,a2,a0
80003088:	40b705b3          	sub	a1,a4,a1
8000308c:	00a63633          	sltu	a2,a2,a0
80003090:	40c587b3          	sub	a5,a1,a2
80003094:	00088493          	mv	s1,a7
80003098:	00068913          	mv	s2,a3
8000309c:	ee1ff06f          	j	80002f7c <__adddf3+0x39c>
800030a0:	fe058813          	addi	a6,a1,-32 # 7fffe0 <__heap_size+0x7f2fe0>
800030a4:	02000e13          	li	t3,32
800030a8:	0107d833          	srl	a6,a5,a6
800030ac:	00000313          	li	t1,0
800030b0:	01c58863          	beq	a1,t3,800030c0 <__adddf3+0x4e0>
800030b4:	04000313          	li	t1,64
800030b8:	40b30333          	sub	t1,t1,a1
800030bc:	00679333          	sll	t1,a5,t1
800030c0:	00a36333          	or	t1,t1,a0
800030c4:	00603333          	snez	t1,t1
800030c8:	00686533          	or	a0,a6,t1
800030cc:	00000593          	li	a1,0
800030d0:	fb5ff06f          	j	80003084 <__adddf3+0x4a4>
800030d4:	00a7e533          	or	a0,a5,a0
800030d8:	00a03533          	snez	a0,a0
800030dc:	ff1ff06f          	j	800030cc <__adddf3+0x4ec>
800030e0:	00148593          	addi	a1,s1,1
800030e4:	7fe5f593          	andi	a1,a1,2046
800030e8:	08059663          	bnez	a1,80003174 <__adddf3+0x594>
800030ec:	00a7e833          	or	a6,a5,a0
800030f0:	00c765b3          	or	a1,a4,a2
800030f4:	06049063          	bnez	s1,80003154 <__adddf3+0x574>
800030f8:	00081c63          	bnez	a6,80003110 <__adddf3+0x530>
800030fc:	10058e63          	beqz	a1,80003218 <__adddf3+0x638>
80003100:	00070793          	mv	a5,a4
80003104:	00060513          	mv	a0,a2
80003108:	00068913          	mv	s2,a3
8000310c:	d75ff06f          	j	80002e80 <__adddf3+0x2a0>
80003110:	d60588e3          	beqz	a1,80002e80 <__adddf3+0x2a0>
80003114:	40c50833          	sub	a6,a0,a2
80003118:	010538b3          	sltu	a7,a0,a6
8000311c:	40e785b3          	sub	a1,a5,a4
80003120:	411585b3          	sub	a1,a1,a7
80003124:	00859893          	slli	a7,a1,0x8
80003128:	0008dc63          	bgez	a7,80003140 <__adddf3+0x560>
8000312c:	40a60533          	sub	a0,a2,a0
80003130:	40f70733          	sub	a4,a4,a5
80003134:	00a63633          	sltu	a2,a2,a0
80003138:	40c707b3          	sub	a5,a4,a2
8000313c:	fcdff06f          	j	80003108 <__adddf3+0x528>
80003140:	00b86533          	or	a0,a6,a1
80003144:	18050463          	beqz	a0,800032cc <__adddf3+0x6ec>
80003148:	00058793          	mv	a5,a1
8000314c:	00080513          	mv	a0,a6
80003150:	d31ff06f          	j	80002e80 <__adddf3+0x2a0>
80003154:	00081c63          	bnez	a6,8000316c <__adddf3+0x58c>
80003158:	d4058ee3          	beqz	a1,80002eb4 <__adddf3+0x2d4>
8000315c:	00070793          	mv	a5,a4
80003160:	00060513          	mv	a0,a2
80003164:	00068913          	mv	s2,a3
80003168:	b1dff06f          	j	80002c84 <__adddf3+0xa4>
8000316c:	b0058ce3          	beqz	a1,80002c84 <__adddf3+0xa4>
80003170:	d45ff06f          	j	80002eb4 <__adddf3+0x2d4>
80003174:	40c505b3          	sub	a1,a0,a2
80003178:	00b53833          	sltu	a6,a0,a1
8000317c:	40e78433          	sub	s0,a5,a4
80003180:	41040433          	sub	s0,s0,a6
80003184:	00841813          	slli	a6,s0,0x8
80003188:	00058993          	mv	s3,a1
8000318c:	08085063          	bgez	a6,8000320c <__adddf3+0x62c>
80003190:	40a609b3          	sub	s3,a2,a0
80003194:	40f70433          	sub	s0,a4,a5
80003198:	01363633          	sltu	a2,a2,s3
8000319c:	40c40433          	sub	s0,s0,a2
800031a0:	00068913          	mv	s2,a3
800031a4:	06040e63          	beqz	s0,80003220 <__adddf3+0x640>
800031a8:	00040513          	mv	a0,s0
800031ac:	1a8020ef          	jal	80005354 <__clzsi2>
800031b0:	ff850693          	addi	a3,a0,-8
800031b4:	02000793          	li	a5,32
800031b8:	40d787b3          	sub	a5,a5,a3
800031bc:	00d41433          	sll	s0,s0,a3
800031c0:	00f9d7b3          	srl	a5,s3,a5
800031c4:	0087e7b3          	or	a5,a5,s0
800031c8:	00d99433          	sll	s0,s3,a3
800031cc:	0a96c463          	blt	a3,s1,80003274 <__adddf3+0x694>
800031d0:	409686b3          	sub	a3,a3,s1
800031d4:	00168613          	addi	a2,a3,1
800031d8:	01f00713          	li	a4,31
800031dc:	06c74263          	blt	a4,a2,80003240 <__adddf3+0x660>
800031e0:	02000713          	li	a4,32
800031e4:	40c70733          	sub	a4,a4,a2
800031e8:	00e79533          	sll	a0,a5,a4
800031ec:	00c456b3          	srl	a3,s0,a2
800031f0:	00e41733          	sll	a4,s0,a4
800031f4:	00d56533          	or	a0,a0,a3
800031f8:	00e03733          	snez	a4,a4
800031fc:	00e56533          	or	a0,a0,a4
80003200:	00c7d7b3          	srl	a5,a5,a2
80003204:	00000493          	li	s1,0
80003208:	c79ff06f          	j	80002e80 <__adddf3+0x2a0>
8000320c:	0085e5b3          	or	a1,a1,s0
80003210:	f8059ae3          	bnez	a1,800031a4 <__adddf3+0x5c4>
80003214:	00000493          	li	s1,0
80003218:	00000913          	li	s2,0
8000321c:	08c0006f          	j	800032a8 <__adddf3+0x6c8>
80003220:	00098513          	mv	a0,s3
80003224:	130020ef          	jal	80005354 <__clzsi2>
80003228:	01850693          	addi	a3,a0,24
8000322c:	01f00793          	li	a5,31
80003230:	f8d7d2e3          	bge	a5,a3,800031b4 <__adddf3+0x5d4>
80003234:	ff850793          	addi	a5,a0,-8
80003238:	00f997b3          	sll	a5,s3,a5
8000323c:	f91ff06f          	j	800031cc <__adddf3+0x5ec>
80003240:	fe168693          	addi	a3,a3,-31
80003244:	00d7d533          	srl	a0,a5,a3
80003248:	02000693          	li	a3,32
8000324c:	00000713          	li	a4,0
80003250:	00d60863          	beq	a2,a3,80003260 <__adddf3+0x680>
80003254:	04000713          	li	a4,64
80003258:	40c70733          	sub	a4,a4,a2
8000325c:	00e79733          	sll	a4,a5,a4
80003260:	00e46733          	or	a4,s0,a4
80003264:	00e03733          	snez	a4,a4
80003268:	00e56533          	or	a0,a0,a4
8000326c:	00000793          	li	a5,0
80003270:	f95ff06f          	j	80003204 <__adddf3+0x624>
80003274:	ff800737          	lui	a4,0xff800
80003278:	fff70713          	addi	a4,a4,-1 # ff7fffff <__stack_top+0x7f7e9c2f>
8000327c:	40d484b3          	sub	s1,s1,a3
80003280:	00e7f7b3          	and	a5,a5,a4
80003284:	00040513          	mv	a0,s0
80003288:	bf9ff06f          	j	80002e80 <__adddf3+0x2a0>
8000328c:	00070793          	mv	a5,a4
80003290:	00060513          	mv	a0,a2
80003294:	c5dff06f          	j	80002ef0 <__adddf3+0x310>
80003298:	00070793          	mv	a5,a4
8000329c:	00060513          	mv	a0,a2
800032a0:	be1ff06f          	j	80002e80 <__adddf3+0x2a0>
800032a4:	7ff00493          	li	s1,2047
800032a8:	00000793          	li	a5,0
800032ac:	00000513          	li	a0,0
800032b0:	0240006f          	j	800032d4 <__adddf3+0x6f4>
800032b4:	00080493          	mv	s1,a6
800032b8:	bc9ff06f          	j	80002e80 <__adddf3+0x2a0>
800032bc:	00070793          	mv	a5,a4
800032c0:	00060513          	mv	a0,a2
800032c4:	00080493          	mv	s1,a6
800032c8:	e41ff06f          	j	80003108 <__adddf3+0x528>
800032cc:	00000793          	li	a5,0
800032d0:	00000913          	li	s2,0
800032d4:	00879713          	slli	a4,a5,0x8
800032d8:	00075e63          	bgez	a4,800032f4 <__adddf3+0x714>
800032dc:	00148493          	addi	s1,s1,1
800032e0:	7ff00713          	li	a4,2047
800032e4:	08e48263          	beq	s1,a4,80003368 <__adddf3+0x788>
800032e8:	ff800737          	lui	a4,0xff800
800032ec:	fff70713          	addi	a4,a4,-1 # ff7fffff <__stack_top+0x7f7e9c2f>
800032f0:	00e7f7b3          	and	a5,a5,a4
800032f4:	01d79693          	slli	a3,a5,0x1d
800032f8:	00355513          	srli	a0,a0,0x3
800032fc:	7ff00713          	li	a4,2047
80003300:	00a6e6b3          	or	a3,a3,a0
80003304:	0037d793          	srli	a5,a5,0x3
80003308:	00e49e63          	bne	s1,a4,80003324 <__adddf3+0x744>
8000330c:	00f6e6b3          	or	a3,a3,a5
80003310:	00000793          	li	a5,0
80003314:	00068863          	beqz	a3,80003324 <__adddf3+0x744>
80003318:	000807b7          	lui	a5,0x80
8000331c:	00000693          	li	a3,0
80003320:	00000913          	li	s2,0
80003324:	01449713          	slli	a4,s1,0x14
80003328:	7ff00637          	lui	a2,0x7ff00
8000332c:	00c79793          	slli	a5,a5,0xc
80003330:	00c77733          	and	a4,a4,a2
80003334:	01c12083          	lw	ra,28(sp)
80003338:	01812403          	lw	s0,24(sp)
8000333c:	00c7d793          	srli	a5,a5,0xc
80003340:	00f767b3          	or	a5,a4,a5
80003344:	01f91713          	slli	a4,s2,0x1f
80003348:	00e7e633          	or	a2,a5,a4
8000334c:	01412483          	lw	s1,20(sp)
80003350:	01012903          	lw	s2,16(sp)
80003354:	00c12983          	lw	s3,12(sp)
80003358:	00068513          	mv	a0,a3
8000335c:	00060593          	mv	a1,a2
80003360:	02010113          	addi	sp,sp,32
80003364:	00008067          	ret
80003368:	00000793          	li	a5,0
8000336c:	00000513          	li	a0,0
80003370:	f85ff06f          	j	800032f4 <__adddf3+0x714>

80003374 <__divdf3>:
80003374:	fd010113          	addi	sp,sp,-48
80003378:	0145d813          	srli	a6,a1,0x14
8000337c:	02912223          	sw	s1,36(sp)
80003380:	03212023          	sw	s2,32(sp)
80003384:	01312e23          	sw	s3,28(sp)
80003388:	01612823          	sw	s6,16(sp)
8000338c:	01712623          	sw	s7,12(sp)
80003390:	00c59493          	slli	s1,a1,0xc
80003394:	02112623          	sw	ra,44(sp)
80003398:	02812423          	sw	s0,40(sp)
8000339c:	01412c23          	sw	s4,24(sp)
800033a0:	01512a23          	sw	s5,20(sp)
800033a4:	7ff87813          	andi	a6,a6,2047
800033a8:	00050b13          	mv	s6,a0
800033ac:	00060b93          	mv	s7,a2
800033b0:	00068913          	mv	s2,a3
800033b4:	00c4d493          	srli	s1,s1,0xc
800033b8:	01f5d993          	srli	s3,a1,0x1f
800033bc:	0a080063          	beqz	a6,8000345c <__divdf3+0xe8>
800033c0:	7ff00793          	li	a5,2047
800033c4:	10f80063          	beq	a6,a5,800034c4 <__divdf3+0x150>
800033c8:	01d55a13          	srli	s4,a0,0x1d
800033cc:	00349493          	slli	s1,s1,0x3
800033d0:	009a6a33          	or	s4,s4,s1
800033d4:	008007b7          	lui	a5,0x800
800033d8:	00fa6a33          	or	s4,s4,a5
800033dc:	00351413          	slli	s0,a0,0x3
800033e0:	c0180a93          	addi	s5,a6,-1023
800033e4:	00000b13          	li	s6,0
800033e8:	01495713          	srli	a4,s2,0x14
800033ec:	00c91493          	slli	s1,s2,0xc
800033f0:	7ff77713          	andi	a4,a4,2047
800033f4:	00c4d493          	srli	s1,s1,0xc
800033f8:	01f95913          	srli	s2,s2,0x1f
800033fc:	10070263          	beqz	a4,80003500 <__divdf3+0x18c>
80003400:	7ff00793          	li	a5,2047
80003404:	16f70663          	beq	a4,a5,80003570 <__divdf3+0x1fc>
80003408:	00349493          	slli	s1,s1,0x3
8000340c:	01dbd793          	srli	a5,s7,0x1d
80003410:	0097e7b3          	or	a5,a5,s1
80003414:	008004b7          	lui	s1,0x800
80003418:	0097e4b3          	or	s1,a5,s1
8000341c:	003b9f13          	slli	t5,s7,0x3
80003420:	c0170713          	addi	a4,a4,-1023
80003424:	00000793          	li	a5,0
80003428:	40ea8833          	sub	a6,s5,a4
8000342c:	002b1713          	slli	a4,s6,0x2
80003430:	00f76733          	or	a4,a4,a5
80003434:	fff70713          	addi	a4,a4,-1
80003438:	00e00693          	li	a3,14
8000343c:	0129c633          	xor	a2,s3,s2
80003440:	16e6e463          	bltu	a3,a4,800035a8 <__divdf3+0x234>
80003444:	800086b7          	lui	a3,0x80008
80003448:	00271713          	slli	a4,a4,0x2
8000344c:	23c68693          	addi	a3,a3,572 # 8000823c <heap_top+0x2e68>
80003450:	00d70733          	add	a4,a4,a3
80003454:	00072703          	lw	a4,0(a4)
80003458:	00070067          	jr	a4
8000345c:	00a4ea33          	or	s4,s1,a0
80003460:	060a0e63          	beqz	s4,800034dc <__divdf3+0x168>
80003464:	02048e63          	beqz	s1,800034a0 <__divdf3+0x12c>
80003468:	00048513          	mv	a0,s1
8000346c:	6e9010ef          	jal	80005354 <__clzsi2>
80003470:	ff550793          	addi	a5,a0,-11
80003474:	01d00a13          	li	s4,29
80003478:	ff850713          	addi	a4,a0,-8
8000347c:	40fa0a33          	sub	s4,s4,a5
80003480:	00e494b3          	sll	s1,s1,a4
80003484:	014b5a33          	srl	s4,s6,s4
80003488:	009a6a33          	or	s4,s4,s1
8000348c:	00eb14b3          	sll	s1,s6,a4
80003490:	c0d00813          	li	a6,-1011
80003494:	40a80ab3          	sub	s5,a6,a0
80003498:	00048413          	mv	s0,s1
8000349c:	f49ff06f          	j	800033e4 <__divdf3+0x70>
800034a0:	6b5010ef          	jal	80005354 <__clzsi2>
800034a4:	00050a13          	mv	s4,a0
800034a8:	015a0793          	addi	a5,s4,21
800034ac:	01c00713          	li	a4,28
800034b0:	02050513          	addi	a0,a0,32
800034b4:	fcf750e3          	bge	a4,a5,80003474 <__divdf3+0x100>
800034b8:	ff8a0a13          	addi	s4,s4,-8
800034bc:	014b1a33          	sll	s4,s6,s4
800034c0:	fd1ff06f          	j	80003490 <__divdf3+0x11c>
800034c4:	00a4ea33          	or	s4,s1,a0
800034c8:	020a1263          	bnez	s4,800034ec <__divdf3+0x178>
800034cc:	00000413          	li	s0,0
800034d0:	7ff00a93          	li	s5,2047
800034d4:	00200b13          	li	s6,2
800034d8:	f11ff06f          	j	800033e8 <__divdf3+0x74>
800034dc:	00000413          	li	s0,0
800034e0:	00000a93          	li	s5,0
800034e4:	00100b13          	li	s6,1
800034e8:	f01ff06f          	j	800033e8 <__divdf3+0x74>
800034ec:	00050413          	mv	s0,a0
800034f0:	00048a13          	mv	s4,s1
800034f4:	7ff00a93          	li	s5,2047
800034f8:	00300b13          	li	s6,3
800034fc:	eedff06f          	j	800033e8 <__divdf3+0x74>
80003500:	0174ef33          	or	t5,s1,s7
80003504:	080f0263          	beqz	t5,80003588 <__divdf3+0x214>
80003508:	04048063          	beqz	s1,80003548 <__divdf3+0x1d4>
8000350c:	00048513          	mv	a0,s1
80003510:	645010ef          	jal	80005354 <__clzsi2>
80003514:	ff550713          	addi	a4,a0,-11
80003518:	01d00793          	li	a5,29
8000351c:	ff850693          	addi	a3,a0,-8
80003520:	40e787b3          	sub	a5,a5,a4
80003524:	00d494b3          	sll	s1,s1,a3
80003528:	00fbd7b3          	srl	a5,s7,a5
8000352c:	0097e7b3          	or	a5,a5,s1
80003530:	00db94b3          	sll	s1,s7,a3
80003534:	c0d00713          	li	a4,-1011
80003538:	00048f13          	mv	t5,s1
8000353c:	40a70733          	sub	a4,a4,a0
80003540:	00078493          	mv	s1,a5
80003544:	ee1ff06f          	j	80003424 <__divdf3+0xb0>
80003548:	000b8513          	mv	a0,s7
8000354c:	609010ef          	jal	80005354 <__clzsi2>
80003550:	00050793          	mv	a5,a0
80003554:	01578713          	addi	a4,a5,21 # 800015 <__heap_size+0x7f3015>
80003558:	01c00693          	li	a3,28
8000355c:	02050513          	addi	a0,a0,32
80003560:	fae6dce3          	bge	a3,a4,80003518 <__divdf3+0x1a4>
80003564:	ff878793          	addi	a5,a5,-8
80003568:	00fb97b3          	sll	a5,s7,a5
8000356c:	fc9ff06f          	j	80003534 <__divdf3+0x1c0>
80003570:	0174ef33          	or	t5,s1,s7
80003574:	020f1263          	bnez	t5,80003598 <__divdf3+0x224>
80003578:	00000493          	li	s1,0
8000357c:	7ff00713          	li	a4,2047
80003580:	00200793          	li	a5,2
80003584:	ea5ff06f          	j	80003428 <__divdf3+0xb4>
80003588:	00000493          	li	s1,0
8000358c:	00000713          	li	a4,0
80003590:	00100793          	li	a5,1
80003594:	e95ff06f          	j	80003428 <__divdf3+0xb4>
80003598:	000b8f13          	mv	t5,s7
8000359c:	7ff00713          	li	a4,2047
800035a0:	00300793          	li	a5,3
800035a4:	e85ff06f          	j	80003428 <__divdf3+0xb4>
800035a8:	0144e663          	bltu	s1,s4,800035b4 <__divdf3+0x240>
800035ac:	349a1c63          	bne	s4,s1,80003904 <__divdf3+0x590>
800035b0:	35e46a63          	bltu	s0,t5,80003904 <__divdf3+0x590>
800035b4:	01fa1693          	slli	a3,s4,0x1f
800035b8:	00145793          	srli	a5,s0,0x1
800035bc:	01f41713          	slli	a4,s0,0x1f
800035c0:	001a5a13          	srli	s4,s4,0x1
800035c4:	00f6e433          	or	s0,a3,a5
800035c8:	00849893          	slli	a7,s1,0x8
800035cc:	018f5593          	srli	a1,t5,0x18
800035d0:	0115e5b3          	or	a1,a1,a7
800035d4:	0108d893          	srli	a7,a7,0x10
800035d8:	031a5eb3          	divu	t4,s4,a7
800035dc:	01059313          	slli	t1,a1,0x10
800035e0:	01035313          	srli	t1,t1,0x10
800035e4:	01045793          	srli	a5,s0,0x10
800035e8:	008f1513          	slli	a0,t5,0x8
800035ec:	031a7a33          	remu	s4,s4,a7
800035f0:	000e8693          	mv	a3,t4
800035f4:	03d30e33          	mul	t3,t1,t4
800035f8:	010a1a13          	slli	s4,s4,0x10
800035fc:	0147e7b3          	or	a5,a5,s4
80003600:	01c7fe63          	bgeu	a5,t3,8000361c <__divdf3+0x2a8>
80003604:	00f587b3          	add	a5,a1,a5
80003608:	fffe8693          	addi	a3,t4,-1
8000360c:	00b7e863          	bltu	a5,a1,8000361c <__divdf3+0x2a8>
80003610:	01c7f663          	bgeu	a5,t3,8000361c <__divdf3+0x2a8>
80003614:	ffee8693          	addi	a3,t4,-2
80003618:	00b787b3          	add	a5,a5,a1
8000361c:	41c787b3          	sub	a5,a5,t3
80003620:	0317df33          	divu	t5,a5,a7
80003624:	01041413          	slli	s0,s0,0x10
80003628:	01045413          	srli	s0,s0,0x10
8000362c:	0317f7b3          	remu	a5,a5,a7
80003630:	000f0e13          	mv	t3,t5
80003634:	03e30eb3          	mul	t4,t1,t5
80003638:	01079793          	slli	a5,a5,0x10
8000363c:	00f467b3          	or	a5,s0,a5
80003640:	01d7fe63          	bgeu	a5,t4,8000365c <__divdf3+0x2e8>
80003644:	00f587b3          	add	a5,a1,a5
80003648:	ffff0e13          	addi	t3,t5,-1
8000364c:	00b7e863          	bltu	a5,a1,8000365c <__divdf3+0x2e8>
80003650:	01d7f663          	bgeu	a5,t4,8000365c <__divdf3+0x2e8>
80003654:	ffef0e13          	addi	t3,t5,-2
80003658:	00b787b3          	add	a5,a5,a1
8000365c:	01069693          	slli	a3,a3,0x10
80003660:	00010437          	lui	s0,0x10
80003664:	01c6e2b3          	or	t0,a3,t3
80003668:	fff40e13          	addi	t3,s0,-1 # ffff <__heap_size+0x2fff>
8000366c:	01c2f6b3          	and	a3,t0,t3
80003670:	0102df93          	srli	t6,t0,0x10
80003674:	01c57e33          	and	t3,a0,t3
80003678:	41d787b3          	sub	a5,a5,t4
8000367c:	01055e93          	srli	t4,a0,0x10
80003680:	02de03b3          	mul	t2,t3,a3
80003684:	03cf84b3          	mul	s1,t6,t3
80003688:	02de86b3          	mul	a3,t4,a3
8000368c:	00968f33          	add	t5,a3,s1
80003690:	0103d693          	srli	a3,t2,0x10
80003694:	01e686b3          	add	a3,a3,t5
80003698:	03df8fb3          	mul	t6,t6,t4
8000369c:	0096f463          	bgeu	a3,s1,800036a4 <__divdf3+0x330>
800036a0:	008f8fb3          	add	t6,t6,s0
800036a4:	0106df13          	srli	t5,a3,0x10
800036a8:	01ff0f33          	add	t5,t5,t6
800036ac:	00010fb7          	lui	t6,0x10
800036b0:	ffff8f93          	addi	t6,t6,-1 # ffff <__heap_size+0x2fff>
800036b4:	01f6f6b3          	and	a3,a3,t6
800036b8:	01069693          	slli	a3,a3,0x10
800036bc:	01f3f3b3          	and	t2,t2,t6
800036c0:	007686b3          	add	a3,a3,t2
800036c4:	01e7e863          	bltu	a5,t5,800036d4 <__divdf3+0x360>
800036c8:	00028493          	mv	s1,t0
800036cc:	05e79863          	bne	a5,t5,8000371c <__divdf3+0x3a8>
800036d0:	04d77663          	bgeu	a4,a3,8000371c <__divdf3+0x3a8>
800036d4:	00a70fb3          	add	t6,a4,a0
800036d8:	00efb3b3          	sltu	t2,t6,a4
800036dc:	00b38433          	add	s0,t2,a1
800036e0:	008787b3          	add	a5,a5,s0
800036e4:	fff28493          	addi	s1,t0,-1
800036e8:	000f8713          	mv	a4,t6
800036ec:	00f5e663          	bltu	a1,a5,800036f8 <__divdf3+0x384>
800036f0:	02f59663          	bne	a1,a5,8000371c <__divdf3+0x3a8>
800036f4:	02039463          	bnez	t2,8000371c <__divdf3+0x3a8>
800036f8:	01e7e663          	bltu	a5,t5,80003704 <__divdf3+0x390>
800036fc:	02ff1063          	bne	t5,a5,8000371c <__divdf3+0x3a8>
80003700:	00dffe63          	bgeu	t6,a3,8000371c <__divdf3+0x3a8>
80003704:	01f50fb3          	add	t6,a0,t6
80003708:	000f8713          	mv	a4,t6
8000370c:	00afbfb3          	sltu	t6,t6,a0
80003710:	00bf8fb3          	add	t6,t6,a1
80003714:	ffe28493          	addi	s1,t0,-2
80003718:	01f787b3          	add	a5,a5,t6
8000371c:	40d706b3          	sub	a3,a4,a3
80003720:	41e787b3          	sub	a5,a5,t5
80003724:	00d73733          	sltu	a4,a4,a3
80003728:	40e787b3          	sub	a5,a5,a4
8000372c:	fff00f13          	li	t5,-1
80003730:	12f58663          	beq	a1,a5,8000385c <__divdf3+0x4e8>
80003734:	0317dfb3          	divu	t6,a5,a7
80003738:	0106d713          	srli	a4,a3,0x10
8000373c:	0317f7b3          	remu	a5,a5,a7
80003740:	03f30f33          	mul	t5,t1,t6
80003744:	01079793          	slli	a5,a5,0x10
80003748:	00f767b3          	or	a5,a4,a5
8000374c:	000f8713          	mv	a4,t6
80003750:	01e7fe63          	bgeu	a5,t5,8000376c <__divdf3+0x3f8>
80003754:	00f587b3          	add	a5,a1,a5
80003758:	ffff8713          	addi	a4,t6,-1
8000375c:	00b7e863          	bltu	a5,a1,8000376c <__divdf3+0x3f8>
80003760:	01e7f663          	bgeu	a5,t5,8000376c <__divdf3+0x3f8>
80003764:	ffef8713          	addi	a4,t6,-2
80003768:	00b787b3          	add	a5,a5,a1
8000376c:	41e787b3          	sub	a5,a5,t5
80003770:	0317df33          	divu	t5,a5,a7
80003774:	01069693          	slli	a3,a3,0x10
80003778:	0106d693          	srli	a3,a3,0x10
8000377c:	0317f7b3          	remu	a5,a5,a7
80003780:	000f0893          	mv	a7,t5
80003784:	03e30333          	mul	t1,t1,t5
80003788:	01079793          	slli	a5,a5,0x10
8000378c:	00f6e7b3          	or	a5,a3,a5
80003790:	0067fe63          	bgeu	a5,t1,800037ac <__divdf3+0x438>
80003794:	00f587b3          	add	a5,a1,a5
80003798:	ffff0893          	addi	a7,t5,-1
8000379c:	00b7e863          	bltu	a5,a1,800037ac <__divdf3+0x438>
800037a0:	0067f663          	bgeu	a5,t1,800037ac <__divdf3+0x438>
800037a4:	ffef0893          	addi	a7,t5,-2
800037a8:	00b787b3          	add	a5,a5,a1
800037ac:	01071693          	slli	a3,a4,0x10
800037b0:	0116e6b3          	or	a3,a3,a7
800037b4:	01069713          	slli	a4,a3,0x10
800037b8:	01075713          	srli	a4,a4,0x10
800037bc:	406787b3          	sub	a5,a5,t1
800037c0:	0106d313          	srli	t1,a3,0x10
800037c4:	03c70f33          	mul	t5,a4,t3
800037c8:	03c30e33          	mul	t3,t1,t3
800037cc:	026e8333          	mul	t1,t4,t1
800037d0:	02ee8eb3          	mul	t4,t4,a4
800037d4:	010f5713          	srli	a4,t5,0x10
800037d8:	01ce8eb3          	add	t4,t4,t3
800037dc:	01d70733          	add	a4,a4,t4
800037e0:	01c77663          	bgeu	a4,t3,800037ec <__divdf3+0x478>
800037e4:	000108b7          	lui	a7,0x10
800037e8:	01130333          	add	t1,t1,a7
800037ec:	01075893          	srli	a7,a4,0x10
800037f0:	006888b3          	add	a7,a7,t1
800037f4:	00010337          	lui	t1,0x10
800037f8:	fff30313          	addi	t1,t1,-1 # ffff <__heap_size+0x2fff>
800037fc:	00677733          	and	a4,a4,t1
80003800:	01071713          	slli	a4,a4,0x10
80003804:	006f7f33          	and	t5,t5,t1
80003808:	01e70733          	add	a4,a4,t5
8000380c:	0117e863          	bltu	a5,a7,8000381c <__divdf3+0x4a8>
80003810:	23179c63          	bne	a5,a7,80003a48 <__divdf3+0x6d4>
80003814:	00068f13          	mv	t5,a3
80003818:	04070263          	beqz	a4,8000385c <__divdf3+0x4e8>
8000381c:	00f587b3          	add	a5,a1,a5
80003820:	fff68f13          	addi	t5,a3,-1
80003824:	00078313          	mv	t1,a5
80003828:	02b7e463          	bltu	a5,a1,80003850 <__divdf3+0x4dc>
8000382c:	0117e663          	bltu	a5,a7,80003838 <__divdf3+0x4c4>
80003830:	21179a63          	bne	a5,a7,80003a44 <__divdf3+0x6d0>
80003834:	02e57063          	bgeu	a0,a4,80003854 <__divdf3+0x4e0>
80003838:	ffe68f13          	addi	t5,a3,-2
8000383c:	00151693          	slli	a3,a0,0x1
80003840:	00a6b333          	sltu	t1,a3,a0
80003844:	00b30333          	add	t1,t1,a1
80003848:	00678333          	add	t1,a5,t1
8000384c:	00068513          	mv	a0,a3
80003850:	01131463          	bne	t1,a7,80003858 <__divdf3+0x4e4>
80003854:	00a70463          	beq	a4,a0,8000385c <__divdf3+0x4e8>
80003858:	001f6f13          	ori	t5,t5,1
8000385c:	3ff80713          	addi	a4,a6,1023
80003860:	10e05263          	blez	a4,80003964 <__divdf3+0x5f0>
80003864:	007f7793          	andi	a5,t5,7
80003868:	02078063          	beqz	a5,80003888 <__divdf3+0x514>
8000386c:	00ff7793          	andi	a5,t5,15
80003870:	00400693          	li	a3,4
80003874:	00d78a63          	beq	a5,a3,80003888 <__divdf3+0x514>
80003878:	004f0793          	addi	a5,t5,4
8000387c:	01e7b6b3          	sltu	a3,a5,t5
80003880:	00d484b3          	add	s1,s1,a3
80003884:	00078f13          	mv	t5,a5
80003888:	00749793          	slli	a5,s1,0x7
8000388c:	0007da63          	bgez	a5,800038a0 <__divdf3+0x52c>
80003890:	ff0007b7          	lui	a5,0xff000
80003894:	fff78793          	addi	a5,a5,-1 # feffffff <__stack_top+0x7efe9c2f>
80003898:	00f4f4b3          	and	s1,s1,a5
8000389c:	40080713          	addi	a4,a6,1024
800038a0:	7fe00793          	li	a5,2046
800038a4:	08e7ca63          	blt	a5,a4,80003938 <__divdf3+0x5c4>
800038a8:	003f5f13          	srli	t5,t5,0x3
800038ac:	01d49793          	slli	a5,s1,0x1d
800038b0:	01e7ef33          	or	t5,a5,t5
800038b4:	0034d513          	srli	a0,s1,0x3
800038b8:	00c51513          	slli	a0,a0,0xc
800038bc:	02c12083          	lw	ra,44(sp)
800038c0:	02812403          	lw	s0,40(sp)
800038c4:	00c55513          	srli	a0,a0,0xc
800038c8:	01471713          	slli	a4,a4,0x14
800038cc:	00a76733          	or	a4,a4,a0
800038d0:	01f61613          	slli	a2,a2,0x1f
800038d4:	00c767b3          	or	a5,a4,a2
800038d8:	02412483          	lw	s1,36(sp)
800038dc:	02012903          	lw	s2,32(sp)
800038e0:	01c12983          	lw	s3,28(sp)
800038e4:	01812a03          	lw	s4,24(sp)
800038e8:	01412a83          	lw	s5,20(sp)
800038ec:	01012b03          	lw	s6,16(sp)
800038f0:	00c12b83          	lw	s7,12(sp)
800038f4:	000f0513          	mv	a0,t5
800038f8:	00078593          	mv	a1,a5
800038fc:	03010113          	addi	sp,sp,48
80003900:	00008067          	ret
80003904:	fff80813          	addi	a6,a6,-1
80003908:	00000713          	li	a4,0
8000390c:	cbdff06f          	j	800035c8 <__divdf3+0x254>
80003910:	00098613          	mv	a2,s3
80003914:	000a0493          	mv	s1,s4
80003918:	00040f13          	mv	t5,s0
8000391c:	000b0793          	mv	a5,s6
80003920:	00300713          	li	a4,3
80003924:	0ee78863          	beq	a5,a4,80003a14 <__divdf3+0x6a0>
80003928:	00100713          	li	a4,1
8000392c:	0ee78e63          	beq	a5,a4,80003a28 <__divdf3+0x6b4>
80003930:	00200713          	li	a4,2
80003934:	f2e794e3          	bne	a5,a4,8000385c <__divdf3+0x4e8>
80003938:	00000513          	li	a0,0
8000393c:	00000f13          	li	t5,0
80003940:	7ff00713          	li	a4,2047
80003944:	f75ff06f          	j	800038b8 <__divdf3+0x544>
80003948:	00090613          	mv	a2,s2
8000394c:	fd5ff06f          	j	80003920 <__divdf3+0x5ac>
80003950:	000804b7          	lui	s1,0x80
80003954:	00000f13          	li	t5,0
80003958:	00000613          	li	a2,0
8000395c:	00300793          	li	a5,3
80003960:	fc1ff06f          	j	80003920 <__divdf3+0x5ac>
80003964:	00100513          	li	a0,1
80003968:	40e50533          	sub	a0,a0,a4
8000396c:	03800793          	li	a5,56
80003970:	0aa7cc63          	blt	a5,a0,80003a28 <__divdf3+0x6b4>
80003974:	01f00793          	li	a5,31
80003978:	06a7c463          	blt	a5,a0,800039e0 <__divdf3+0x66c>
8000397c:	41e80813          	addi	a6,a6,1054
80003980:	010497b3          	sll	a5,s1,a6
80003984:	00af5733          	srl	a4,t5,a0
80003988:	010f1833          	sll	a6,t5,a6
8000398c:	00e7e7b3          	or	a5,a5,a4
80003990:	01003833          	snez	a6,a6
80003994:	0107e7b3          	or	a5,a5,a6
80003998:	00a4d533          	srl	a0,s1,a0
8000399c:	0077f713          	andi	a4,a5,7
800039a0:	02070063          	beqz	a4,800039c0 <__divdf3+0x64c>
800039a4:	00f7f713          	andi	a4,a5,15
800039a8:	00400693          	li	a3,4
800039ac:	00d70a63          	beq	a4,a3,800039c0 <__divdf3+0x64c>
800039b0:	00478713          	addi	a4,a5,4
800039b4:	00f736b3          	sltu	a3,a4,a5
800039b8:	00d50533          	add	a0,a0,a3
800039bc:	00070793          	mv	a5,a4
800039c0:	00851713          	slli	a4,a0,0x8
800039c4:	06074863          	bltz	a4,80003a34 <__divdf3+0x6c0>
800039c8:	01d51f13          	slli	t5,a0,0x1d
800039cc:	0037d793          	srli	a5,a5,0x3
800039d0:	00ff6f33          	or	t5,t5,a5
800039d4:	00355513          	srli	a0,a0,0x3
800039d8:	00000713          	li	a4,0
800039dc:	eddff06f          	j	800038b8 <__divdf3+0x544>
800039e0:	fe100793          	li	a5,-31
800039e4:	40e787b3          	sub	a5,a5,a4
800039e8:	02000693          	li	a3,32
800039ec:	00f4d7b3          	srl	a5,s1,a5
800039f0:	00000713          	li	a4,0
800039f4:	00d50663          	beq	a0,a3,80003a00 <__divdf3+0x68c>
800039f8:	43e80713          	addi	a4,a6,1086
800039fc:	00e49733          	sll	a4,s1,a4
80003a00:	01e76733          	or	a4,a4,t5
80003a04:	00e03733          	snez	a4,a4
80003a08:	00e7e7b3          	or	a5,a5,a4
80003a0c:	00000513          	li	a0,0
80003a10:	f8dff06f          	j	8000399c <__divdf3+0x628>
80003a14:	00080537          	lui	a0,0x80
80003a18:	00000f13          	li	t5,0
80003a1c:	7ff00713          	li	a4,2047
80003a20:	00000613          	li	a2,0
80003a24:	e95ff06f          	j	800038b8 <__divdf3+0x544>
80003a28:	00000513          	li	a0,0
80003a2c:	00000f13          	li	t5,0
80003a30:	fa9ff06f          	j	800039d8 <__divdf3+0x664>
80003a34:	00000513          	li	a0,0
80003a38:	00000f13          	li	t5,0
80003a3c:	00100713          	li	a4,1
80003a40:	e79ff06f          	j	800038b8 <__divdf3+0x544>
80003a44:	000f0693          	mv	a3,t5
80003a48:	00068f13          	mv	t5,a3
80003a4c:	e0dff06f          	j	80003858 <__divdf3+0x4e4>

80003a50 <__ledf2>:
80003a50:	0146d793          	srli	a5,a3,0x14
80003a54:	0145d893          	srli	a7,a1,0x14
80003a58:	00100737          	lui	a4,0x100
80003a5c:	fff70713          	addi	a4,a4,-1 # fffff <__heap_size+0xf2fff>
80003a60:	00050813          	mv	a6,a0
80003a64:	00050e13          	mv	t3,a0
80003a68:	7ff8f893          	andi	a7,a7,2047
80003a6c:	7ff7f513          	andi	a0,a5,2047
80003a70:	7ff00793          	li	a5,2047
80003a74:	00b77333          	and	t1,a4,a1
80003a78:	00060e93          	mv	t4,a2
80003a7c:	00d77733          	and	a4,a4,a3
80003a80:	01f5d593          	srli	a1,a1,0x1f
80003a84:	01f6d693          	srli	a3,a3,0x1f
80003a88:	00f89663          	bne	a7,a5,80003a94 <__ledf2+0x44>
80003a8c:	010367b3          	or	a5,t1,a6
80003a90:	06079c63          	bnez	a5,80003b08 <__ledf2+0xb8>
80003a94:	7ff00793          	li	a5,2047
80003a98:	00f51663          	bne	a0,a5,80003aa4 <__ledf2+0x54>
80003a9c:	00c767b3          	or	a5,a4,a2
80003aa0:	06079463          	bnez	a5,80003b08 <__ledf2+0xb8>
80003aa4:	00000793          	li	a5,0
80003aa8:	00089663          	bnez	a7,80003ab4 <__ledf2+0x64>
80003aac:	01036833          	or	a6,t1,a6
80003ab0:	00183793          	seqz	a5,a6
80003ab4:	04051e63          	bnez	a0,80003b10 <__ledf2+0xc0>
80003ab8:	00c76633          	or	a2,a4,a2
80003abc:	00078c63          	beqz	a5,80003ad4 <__ledf2+0x84>
80003ac0:	02060063          	beqz	a2,80003ae0 <__ledf2+0x90>
80003ac4:	00100513          	li	a0,1
80003ac8:	00069c63          	bnez	a3,80003ae0 <__ledf2+0x90>
80003acc:	fff00513          	li	a0,-1
80003ad0:	00008067          	ret
80003ad4:	04061063          	bnez	a2,80003b14 <__ledf2+0xc4>
80003ad8:	fff00513          	li	a0,-1
80003adc:	04058463          	beqz	a1,80003b24 <__ledf2+0xd4>
80003ae0:	00008067          	ret
80003ae4:	fea8c0e3          	blt	a7,a0,80003ac4 <__ledf2+0x74>
80003ae8:	fe6768e3          	bltu	a4,t1,80003ad8 <__ledf2+0x88>
80003aec:	00e31863          	bne	t1,a4,80003afc <__ledf2+0xac>
80003af0:	ffcee4e3          	bltu	t4,t3,80003ad8 <__ledf2+0x88>
80003af4:	00000513          	li	a0,0
80003af8:	ffde74e3          	bgeu	t3,t4,80003ae0 <__ledf2+0x90>
80003afc:	00100513          	li	a0,1
80003b00:	fe0590e3          	bnez	a1,80003ae0 <__ledf2+0x90>
80003b04:	fc9ff06f          	j	80003acc <__ledf2+0x7c>
80003b08:	00200513          	li	a0,2
80003b0c:	00008067          	ret
80003b10:	fa079ae3          	bnez	a5,80003ac4 <__ledf2+0x74>
80003b14:	fcb692e3          	bne	a3,a1,80003ad8 <__ledf2+0x88>
80003b18:	fd1556e3          	bge	a0,a7,80003ae4 <__ledf2+0x94>
80003b1c:	fff00513          	li	a0,-1
80003b20:	fc0690e3          	bnez	a3,80003ae0 <__ledf2+0x90>
80003b24:	00100513          	li	a0,1
80003b28:	00008067          	ret

80003b2c <__muldf3>:
80003b2c:	fd010113          	addi	sp,sp,-48
80003b30:	01512a23          	sw	s5,20(sp)
80003b34:	0145da93          	srli	s5,a1,0x14
80003b38:	02812423          	sw	s0,40(sp)
80003b3c:	02912223          	sw	s1,36(sp)
80003b40:	01312e23          	sw	s3,28(sp)
80003b44:	01412c23          	sw	s4,24(sp)
80003b48:	01612823          	sw	s6,16(sp)
80003b4c:	00c59493          	slli	s1,a1,0xc
80003b50:	02112623          	sw	ra,44(sp)
80003b54:	03212023          	sw	s2,32(sp)
80003b58:	01712623          	sw	s7,12(sp)
80003b5c:	7ffafa93          	andi	s5,s5,2047
80003b60:	00050413          	mv	s0,a0
80003b64:	00060b13          	mv	s6,a2
80003b68:	00068993          	mv	s3,a3
80003b6c:	00c4d493          	srli	s1,s1,0xc
80003b70:	01f5da13          	srli	s4,a1,0x1f
80003b74:	240a8e63          	beqz	s5,80003dd0 <__muldf3+0x2a4>
80003b78:	7ff00793          	li	a5,2047
80003b7c:	2cfa8063          	beq	s5,a5,80003e3c <__muldf3+0x310>
80003b80:	00349493          	slli	s1,s1,0x3
80003b84:	01d55793          	srli	a5,a0,0x1d
80003b88:	0097e7b3          	or	a5,a5,s1
80003b8c:	008004b7          	lui	s1,0x800
80003b90:	0097e4b3          	or	s1,a5,s1
80003b94:	00351913          	slli	s2,a0,0x3
80003b98:	c01a8a93          	addi	s5,s5,-1023
80003b9c:	00000b93          	li	s7,0
80003ba0:	0149d713          	srli	a4,s3,0x14
80003ba4:	00c99413          	slli	s0,s3,0xc
80003ba8:	7ff77713          	andi	a4,a4,2047
80003bac:	00c45413          	srli	s0,s0,0xc
80003bb0:	01f9d993          	srli	s3,s3,0x1f
80003bb4:	2c070063          	beqz	a4,80003e74 <__muldf3+0x348>
80003bb8:	7ff00793          	li	a5,2047
80003bbc:	32f70463          	beq	a4,a5,80003ee4 <__muldf3+0x3b8>
80003bc0:	00341413          	slli	s0,s0,0x3
80003bc4:	01db5793          	srli	a5,s6,0x1d
80003bc8:	0087e7b3          	or	a5,a5,s0
80003bcc:	00800437          	lui	s0,0x800
80003bd0:	0087e433          	or	s0,a5,s0
80003bd4:	c0170693          	addi	a3,a4,-1023
80003bd8:	003b1793          	slli	a5,s6,0x3
80003bdc:	00000713          	li	a4,0
80003be0:	00da8ab3          	add	s5,s5,a3
80003be4:	002b9693          	slli	a3,s7,0x2
80003be8:	00e6e6b3          	or	a3,a3,a4
80003bec:	00a00613          	li	a2,10
80003bf0:	001a8513          	addi	a0,s5,1
80003bf4:	40d64663          	blt	a2,a3,80004000 <__muldf3+0x4d4>
80003bf8:	00200613          	li	a2,2
80003bfc:	013a45b3          	xor	a1,s4,s3
80003c00:	30d64e63          	blt	a2,a3,80003f1c <__muldf3+0x3f0>
80003c04:	fff68693          	addi	a3,a3,-1
80003c08:	00100613          	li	a2,1
80003c0c:	32d67a63          	bgeu	a2,a3,80003f40 <__muldf3+0x414>
80003c10:	00010337          	lui	t1,0x10
80003c14:	fff30e13          	addi	t3,t1,-1 # ffff <__heap_size+0x2fff>
80003c18:	01095713          	srli	a4,s2,0x10
80003c1c:	0107d893          	srli	a7,a5,0x10
80003c20:	01c97933          	and	s2,s2,t3
80003c24:	01c7ff33          	and	t5,a5,t3
80003c28:	03e907b3          	mul	a5,s2,t5
80003c2c:	03e70eb3          	mul	t4,a4,t5
80003c30:	0107d813          	srli	a6,a5,0x10
80003c34:	03288633          	mul	a2,a7,s2
80003c38:	01d60633          	add	a2,a2,t4
80003c3c:	00c80833          	add	a6,a6,a2
80003c40:	031706b3          	mul	a3,a4,a7
80003c44:	01d87463          	bgeu	a6,t4,80003c4c <__muldf3+0x120>
80003c48:	006686b3          	add	a3,a3,t1
80003c4c:	01085293          	srli	t0,a6,0x10
80003c50:	01c87833          	and	a6,a6,t3
80003c54:	01c7f7b3          	and	a5,a5,t3
80003c58:	01045613          	srli	a2,s0,0x10
80003c5c:	01c47e33          	and	t3,s0,t3
80003c60:	01081813          	slli	a6,a6,0x10
80003c64:	00f80833          	add	a6,a6,a5
80003c68:	03c90eb3          	mul	t4,s2,t3
80003c6c:	03c707b3          	mul	a5,a4,t3
80003c70:	03260933          	mul	s2,a2,s2
80003c74:	02c70333          	mul	t1,a4,a2
80003c78:	00f90933          	add	s2,s2,a5
80003c7c:	010ed713          	srli	a4,t4,0x10
80003c80:	01270733          	add	a4,a4,s2
80003c84:	00f77663          	bgeu	a4,a5,80003c90 <__muldf3+0x164>
80003c88:	000107b7          	lui	a5,0x10
80003c8c:	00f30333          	add	t1,t1,a5
80003c90:	00010437          	lui	s0,0x10
80003c94:	01075793          	srli	a5,a4,0x10
80003c98:	fff40f93          	addi	t6,s0,-1 # ffff <__heap_size+0x2fff>
80003c9c:	00678333          	add	t1,a5,t1
80003ca0:	01f777b3          	and	a5,a4,t6
80003ca4:	01fefeb3          	and	t4,t4,t6
80003ca8:	01079793          	slli	a5,a5,0x10
80003cac:	01f4ffb3          	and	t6,s1,t6
80003cb0:	01d787b3          	add	a5,a5,t4
80003cb4:	0104de93          	srli	t4,s1,0x10
80003cb8:	03ff03b3          	mul	t2,t5,t6
80003cbc:	00f282b3          	add	t0,t0,a5
80003cc0:	03ee8f33          	mul	t5,t4,t5
80003cc4:	0103d713          	srli	a4,t2,0x10
80003cc8:	03d884b3          	mul	s1,a7,t4
80003ccc:	03f888b3          	mul	a7,a7,t6
80003cd0:	01e888b3          	add	a7,a7,t5
80003cd4:	01170733          	add	a4,a4,a7
80003cd8:	01e77463          	bgeu	a4,t5,80003ce0 <__muldf3+0x1b4>
80003cdc:	008484b3          	add	s1,s1,s0
80003ce0:	01075f13          	srli	t5,a4,0x10
80003ce4:	009f0f33          	add	t5,t5,s1
80003ce8:	000104b7          	lui	s1,0x10
80003cec:	fff48413          	addi	s0,s1,-1 # ffff <__heap_size+0x2fff>
80003cf0:	00877733          	and	a4,a4,s0
80003cf4:	0083f3b3          	and	t2,t2,s0
80003cf8:	01071713          	slli	a4,a4,0x10
80003cfc:	007708b3          	add	a7,a4,t2
80003d00:	03fe03b3          	mul	t2,t3,t6
80003d04:	03ce8e33          	mul	t3,t4,t3
80003d08:	03d60eb3          	mul	t4,a2,t4
80003d0c:	03f60633          	mul	a2,a2,t6
80003d10:	0103df93          	srli	t6,t2,0x10
80003d14:	01c60633          	add	a2,a2,t3
80003d18:	00cf8fb3          	add	t6,t6,a2
80003d1c:	01cff463          	bgeu	t6,t3,80003d24 <__muldf3+0x1f8>
80003d20:	009e8eb3          	add	t4,t4,s1
80003d24:	008ff733          	and	a4,t6,s0
80003d28:	0083f3b3          	and	t2,t2,s0
80003d2c:	01071713          	slli	a4,a4,0x10
80003d30:	005686b3          	add	a3,a3,t0
80003d34:	00770733          	add	a4,a4,t2
80003d38:	00670333          	add	t1,a4,t1
80003d3c:	00f6b7b3          	sltu	a5,a3,a5
80003d40:	00f307b3          	add	a5,t1,a5
80003d44:	00e33633          	sltu	a2,t1,a4
80003d48:	011688b3          	add	a7,a3,a7
80003d4c:	0067b333          	sltu	t1,a5,t1
80003d50:	00666633          	or	a2,a2,t1
80003d54:	00d8b6b3          	sltu	a3,a7,a3
80003d58:	01e78333          	add	t1,a5,t5
80003d5c:	00d306b3          	add	a3,t1,a3
80003d60:	00f33733          	sltu	a4,t1,a5
80003d64:	010fdf93          	srli	t6,t6,0x10
80003d68:	0066b333          	sltu	t1,a3,t1
80003d6c:	00989793          	slli	a5,a7,0x9
80003d70:	01f60633          	add	a2,a2,t6
80003d74:	00676733          	or	a4,a4,t1
80003d78:	00c70733          	add	a4,a4,a2
80003d7c:	0107e7b3          	or	a5,a5,a6
80003d80:	01d70733          	add	a4,a4,t4
80003d84:	00f037b3          	snez	a5,a5
80003d88:	0178d893          	srli	a7,a7,0x17
80003d8c:	00971713          	slli	a4,a4,0x9
80003d90:	0176d413          	srli	s0,a3,0x17
80003d94:	0117e7b3          	or	a5,a5,a7
80003d98:	00969693          	slli	a3,a3,0x9
80003d9c:	00d7e7b3          	or	a5,a5,a3
80003da0:	00771693          	slli	a3,a4,0x7
80003da4:	00876433          	or	s0,a4,s0
80003da8:	0206d063          	bgez	a3,80003dc8 <__muldf3+0x29c>
80003dac:	0017d713          	srli	a4,a5,0x1
80003db0:	0017f793          	andi	a5,a5,1
80003db4:	00f76733          	or	a4,a4,a5
80003db8:	01f41793          	slli	a5,s0,0x1f
80003dbc:	00f767b3          	or	a5,a4,a5
80003dc0:	00145413          	srli	s0,s0,0x1
80003dc4:	00050a93          	mv	s5,a0
80003dc8:	000a8513          	mv	a0,s5
80003dcc:	18c0006f          	j	80003f58 <__muldf3+0x42c>
80003dd0:	00a4e933          	or	s2,s1,a0
80003dd4:	08090063          	beqz	s2,80003e54 <__muldf3+0x328>
80003dd8:	04048063          	beqz	s1,80003e18 <__muldf3+0x2ec>
80003ddc:	00048513          	mv	a0,s1
80003de0:	574010ef          	jal	80005354 <__clzsi2>
80003de4:	ff550713          	addi	a4,a0,-11 # 7fff5 <__heap_size+0x72ff5>
80003de8:	01d00793          	li	a5,29
80003dec:	ff850693          	addi	a3,a0,-8
80003df0:	40e787b3          	sub	a5,a5,a4
80003df4:	00d494b3          	sll	s1,s1,a3
80003df8:	00f457b3          	srl	a5,s0,a5
80003dfc:	0097e7b3          	or	a5,a5,s1
80003e00:	00d414b3          	sll	s1,s0,a3
80003e04:	c0d00a93          	li	s5,-1011
80003e08:	00048913          	mv	s2,s1
80003e0c:	40aa8ab3          	sub	s5,s5,a0
80003e10:	00078493          	mv	s1,a5
80003e14:	d89ff06f          	j	80003b9c <__muldf3+0x70>
80003e18:	53c010ef          	jal	80005354 <__clzsi2>
80003e1c:	00050793          	mv	a5,a0
80003e20:	01578713          	addi	a4,a5,21 # 10015 <__heap_size+0x3015>
80003e24:	01c00693          	li	a3,28
80003e28:	02050513          	addi	a0,a0,32
80003e2c:	fae6dee3          	bge	a3,a4,80003de8 <__muldf3+0x2bc>
80003e30:	ff878793          	addi	a5,a5,-8
80003e34:	00f417b3          	sll	a5,s0,a5
80003e38:	fcdff06f          	j	80003e04 <__muldf3+0x2d8>
80003e3c:	00a4e933          	or	s2,s1,a0
80003e40:	02091263          	bnez	s2,80003e64 <__muldf3+0x338>
80003e44:	00000493          	li	s1,0
80003e48:	7ff00a93          	li	s5,2047
80003e4c:	00200b93          	li	s7,2
80003e50:	d51ff06f          	j	80003ba0 <__muldf3+0x74>
80003e54:	00000493          	li	s1,0
80003e58:	00000a93          	li	s5,0
80003e5c:	00100b93          	li	s7,1
80003e60:	d41ff06f          	j	80003ba0 <__muldf3+0x74>
80003e64:	00050913          	mv	s2,a0
80003e68:	7ff00a93          	li	s5,2047
80003e6c:	00300b93          	li	s7,3
80003e70:	d31ff06f          	j	80003ba0 <__muldf3+0x74>
80003e74:	016467b3          	or	a5,s0,s6
80003e78:	08078263          	beqz	a5,80003efc <__muldf3+0x3d0>
80003e7c:	04040063          	beqz	s0,80003ebc <__muldf3+0x390>
80003e80:	00040513          	mv	a0,s0
80003e84:	4d0010ef          	jal	80005354 <__clzsi2>
80003e88:	ff550693          	addi	a3,a0,-11
80003e8c:	01d00713          	li	a4,29
80003e90:	ff850793          	addi	a5,a0,-8
80003e94:	40d70733          	sub	a4,a4,a3
80003e98:	00f41433          	sll	s0,s0,a5
80003e9c:	00eb5733          	srl	a4,s6,a4
80003ea0:	00876733          	or	a4,a4,s0
80003ea4:	00fb1433          	sll	s0,s6,a5
80003ea8:	c0d00693          	li	a3,-1011
80003eac:	00040793          	mv	a5,s0
80003eb0:	40a686b3          	sub	a3,a3,a0
80003eb4:	00070413          	mv	s0,a4
80003eb8:	d25ff06f          	j	80003bdc <__muldf3+0xb0>
80003ebc:	000b0513          	mv	a0,s6
80003ec0:	494010ef          	jal	80005354 <__clzsi2>
80003ec4:	00050793          	mv	a5,a0
80003ec8:	01578693          	addi	a3,a5,21
80003ecc:	01c00713          	li	a4,28
80003ed0:	02050513          	addi	a0,a0,32
80003ed4:	fad75ce3          	bge	a4,a3,80003e8c <__muldf3+0x360>
80003ed8:	ff878793          	addi	a5,a5,-8
80003edc:	00fb1733          	sll	a4,s6,a5
80003ee0:	fc9ff06f          	j	80003ea8 <__muldf3+0x37c>
80003ee4:	016467b3          	or	a5,s0,s6
80003ee8:	02079263          	bnez	a5,80003f0c <__muldf3+0x3e0>
80003eec:	00000413          	li	s0,0
80003ef0:	7ff00693          	li	a3,2047
80003ef4:	00200713          	li	a4,2
80003ef8:	ce9ff06f          	j	80003be0 <__muldf3+0xb4>
80003efc:	00000413          	li	s0,0
80003f00:	00000693          	li	a3,0
80003f04:	00100713          	li	a4,1
80003f08:	cd9ff06f          	j	80003be0 <__muldf3+0xb4>
80003f0c:	000b0793          	mv	a5,s6
80003f10:	7ff00693          	li	a3,2047
80003f14:	00300713          	li	a4,3
80003f18:	cc9ff06f          	j	80003be0 <__muldf3+0xb4>
80003f1c:	00100613          	li	a2,1
80003f20:	00d61633          	sll	a2,a2,a3
80003f24:	53067693          	andi	a3,a2,1328
80003f28:	0e069663          	bnez	a3,80004014 <__muldf3+0x4e8>
80003f2c:	24067813          	andi	a6,a2,576
80003f30:	1a081a63          	bnez	a6,800040e4 <__muldf3+0x5b8>
80003f34:	08867613          	andi	a2,a2,136
80003f38:	cc060ce3          	beqz	a2,80003c10 <__muldf3+0xe4>
80003f3c:	00098593          	mv	a1,s3
80003f40:	00200693          	li	a3,2
80003f44:	18d70863          	beq	a4,a3,800040d4 <__muldf3+0x5a8>
80003f48:	00300693          	li	a3,3
80003f4c:	1ad70463          	beq	a4,a3,800040f4 <__muldf3+0x5c8>
80003f50:	00100693          	li	a3,1
80003f54:	1ad70663          	beq	a4,a3,80004100 <__muldf3+0x5d4>
80003f58:	3ff50613          	addi	a2,a0,1023
80003f5c:	0cc05463          	blez	a2,80004024 <__muldf3+0x4f8>
80003f60:	0077f713          	andi	a4,a5,7
80003f64:	02070063          	beqz	a4,80003f84 <__muldf3+0x458>
80003f68:	00f7f713          	andi	a4,a5,15
80003f6c:	00400693          	li	a3,4
80003f70:	00d70a63          	beq	a4,a3,80003f84 <__muldf3+0x458>
80003f74:	00478713          	addi	a4,a5,4
80003f78:	00f736b3          	sltu	a3,a4,a5
80003f7c:	00d40433          	add	s0,s0,a3
80003f80:	00070793          	mv	a5,a4
80003f84:	00741713          	slli	a4,s0,0x7
80003f88:	00075a63          	bgez	a4,80003f9c <__muldf3+0x470>
80003f8c:	ff000737          	lui	a4,0xff000
80003f90:	fff70713          	addi	a4,a4,-1 # feffffff <__stack_top+0x7efe9c2f>
80003f94:	00e47433          	and	s0,s0,a4
80003f98:	40050613          	addi	a2,a0,1024
80003f9c:	7fe00713          	li	a4,2046
80003fa0:	12c74a63          	blt	a4,a2,800040d4 <__muldf3+0x5a8>
80003fa4:	0037d793          	srli	a5,a5,0x3
80003fa8:	01d41693          	slli	a3,s0,0x1d
80003fac:	00f6e6b3          	or	a3,a3,a5
80003fb0:	00345713          	srli	a4,s0,0x3
80003fb4:	00c71713          	slli	a4,a4,0xc
80003fb8:	02c12083          	lw	ra,44(sp)
80003fbc:	02812403          	lw	s0,40(sp)
80003fc0:	01461613          	slli	a2,a2,0x14
80003fc4:	00c75713          	srli	a4,a4,0xc
80003fc8:	01f59593          	slli	a1,a1,0x1f
80003fcc:	00e66633          	or	a2,a2,a4
80003fd0:	00b667b3          	or	a5,a2,a1
80003fd4:	02412483          	lw	s1,36(sp)
80003fd8:	02012903          	lw	s2,32(sp)
80003fdc:	01c12983          	lw	s3,28(sp)
80003fe0:	01812a03          	lw	s4,24(sp)
80003fe4:	01412a83          	lw	s5,20(sp)
80003fe8:	01012b03          	lw	s6,16(sp)
80003fec:	00c12b83          	lw	s7,12(sp)
80003ff0:	00068513          	mv	a0,a3
80003ff4:	00078593          	mv	a1,a5
80003ff8:	03010113          	addi	sp,sp,48
80003ffc:	00008067          	ret
80004000:	00f00613          	li	a2,15
80004004:	0ec68863          	beq	a3,a2,800040f4 <__muldf3+0x5c8>
80004008:	00b00613          	li	a2,11
8000400c:	000a0593          	mv	a1,s4
80004010:	f2c686e3          	beq	a3,a2,80003f3c <__muldf3+0x410>
80004014:	00048413          	mv	s0,s1
80004018:	00090793          	mv	a5,s2
8000401c:	000b8713          	mv	a4,s7
80004020:	f21ff06f          	j	80003f40 <__muldf3+0x414>
80004024:	00100713          	li	a4,1
80004028:	40c70733          	sub	a4,a4,a2
8000402c:	03800693          	li	a3,56
80004030:	0ce6c863          	blt	a3,a4,80004100 <__muldf3+0x5d4>
80004034:	01f00693          	li	a3,31
80004038:	06e6c463          	blt	a3,a4,800040a0 <__muldf3+0x574>
8000403c:	41e50513          	addi	a0,a0,1054
80004040:	00e7d633          	srl	a2,a5,a4
80004044:	00a416b3          	sll	a3,s0,a0
80004048:	00a79533          	sll	a0,a5,a0
8000404c:	00c6e6b3          	or	a3,a3,a2
80004050:	00a03533          	snez	a0,a0
80004054:	00a6e7b3          	or	a5,a3,a0
80004058:	00e45733          	srl	a4,s0,a4
8000405c:	0077f693          	andi	a3,a5,7
80004060:	02068063          	beqz	a3,80004080 <__muldf3+0x554>
80004064:	00f7f693          	andi	a3,a5,15
80004068:	00400613          	li	a2,4
8000406c:	00c68a63          	beq	a3,a2,80004080 <__muldf3+0x554>
80004070:	00478693          	addi	a3,a5,4
80004074:	00f6b633          	sltu	a2,a3,a5
80004078:	00c70733          	add	a4,a4,a2
8000407c:	00068793          	mv	a5,a3
80004080:	00871693          	slli	a3,a4,0x8
80004084:	0806c463          	bltz	a3,8000410c <__muldf3+0x5e0>
80004088:	01d71693          	slli	a3,a4,0x1d
8000408c:	0037d793          	srli	a5,a5,0x3
80004090:	00f6e6b3          	or	a3,a3,a5
80004094:	00375713          	srli	a4,a4,0x3
80004098:	00000613          	li	a2,0
8000409c:	f19ff06f          	j	80003fb4 <__muldf3+0x488>
800040a0:	fe100693          	li	a3,-31
800040a4:	40c686b3          	sub	a3,a3,a2
800040a8:	02000813          	li	a6,32
800040ac:	00d456b3          	srl	a3,s0,a3
800040b0:	00000613          	li	a2,0
800040b4:	01070663          	beq	a4,a6,800040c0 <__muldf3+0x594>
800040b8:	43e50613          	addi	a2,a0,1086
800040bc:	00c41633          	sll	a2,s0,a2
800040c0:	00f66633          	or	a2,a2,a5
800040c4:	00c03633          	snez	a2,a2
800040c8:	00c6e7b3          	or	a5,a3,a2
800040cc:	00000713          	li	a4,0
800040d0:	f8dff06f          	j	8000405c <__muldf3+0x530>
800040d4:	00000713          	li	a4,0
800040d8:	00000693          	li	a3,0
800040dc:	7ff00613          	li	a2,2047
800040e0:	ed5ff06f          	j	80003fb4 <__muldf3+0x488>
800040e4:	00080737          	lui	a4,0x80
800040e8:	7ff00613          	li	a2,2047
800040ec:	00000593          	li	a1,0
800040f0:	ec5ff06f          	j	80003fb4 <__muldf3+0x488>
800040f4:	00080737          	lui	a4,0x80
800040f8:	00000693          	li	a3,0
800040fc:	fedff06f          	j	800040e8 <__muldf3+0x5bc>
80004100:	00000713          	li	a4,0
80004104:	00000693          	li	a3,0
80004108:	f91ff06f          	j	80004098 <__muldf3+0x56c>
8000410c:	00000713          	li	a4,0
80004110:	00000693          	li	a3,0
80004114:	00100613          	li	a2,1
80004118:	e9dff06f          	j	80003fb4 <__muldf3+0x488>

8000411c <__subdf3>:
8000411c:	00100837          	lui	a6,0x100
80004120:	fff80813          	addi	a6,a6,-1 # fffff <__heap_size+0xf2fff>
80004124:	fe010113          	addi	sp,sp,-32
80004128:	00b878b3          	and	a7,a6,a1
8000412c:	0145d713          	srli	a4,a1,0x14
80004130:	01d55793          	srli	a5,a0,0x1d
80004134:	00d87833          	and	a6,a6,a3
80004138:	01212823          	sw	s2,16(sp)
8000413c:	7ff77913          	andi	s2,a4,2047
80004140:	00389713          	slli	a4,a7,0x3
80004144:	0146d893          	srli	a7,a3,0x14
80004148:	00912a23          	sw	s1,20(sp)
8000414c:	00e7e7b3          	or	a5,a5,a4
80004150:	01f5d493          	srli	s1,a1,0x1f
80004154:	01d65713          	srli	a4,a2,0x1d
80004158:	00381813          	slli	a6,a6,0x3
8000415c:	00112e23          	sw	ra,28(sp)
80004160:	00812c23          	sw	s0,24(sp)
80004164:	01312623          	sw	s3,12(sp)
80004168:	7ff8f893          	andi	a7,a7,2047
8000416c:	7ff00593          	li	a1,2047
80004170:	00351513          	slli	a0,a0,0x3
80004174:	01f6d693          	srli	a3,a3,0x1f
80004178:	01076733          	or	a4,a4,a6
8000417c:	00361613          	slli	a2,a2,0x3
80004180:	00b89663          	bne	a7,a1,8000418c <__subdf3+0x70>
80004184:	00c765b3          	or	a1,a4,a2
80004188:	00059463          	bnez	a1,80004190 <__subdf3+0x74>
8000418c:	0016c693          	xori	a3,a3,1
80004190:	41190833          	sub	a6,s2,a7
80004194:	2a969a63          	bne	a3,s1,80004448 <__subdf3+0x32c>
80004198:	11005c63          	blez	a6,800042b0 <__subdf3+0x194>
8000419c:	04089063          	bnez	a7,800041dc <__subdf3+0xc0>
800041a0:	00c766b3          	or	a3,a4,a2
800041a4:	66068063          	beqz	a3,80004804 <__subdf3+0x6e8>
800041a8:	fff80593          	addi	a1,a6,-1
800041ac:	02059063          	bnez	a1,800041cc <__subdf3+0xb0>
800041b0:	00c50633          	add	a2,a0,a2
800041b4:	00a636b3          	sltu	a3,a2,a0
800041b8:	00e78733          	add	a4,a5,a4
800041bc:	00060513          	mv	a0,a2
800041c0:	00d707b3          	add	a5,a4,a3
800041c4:	00100913          	li	s2,1
800041c8:	06c0006f          	j	80004234 <__subdf3+0x118>
800041cc:	7ff00693          	li	a3,2047
800041d0:	02d81063          	bne	a6,a3,800041f0 <__subdf3+0xd4>
800041d4:	7ff00913          	li	s2,2047
800041d8:	1f80006f          	j	800043d0 <__subdf3+0x2b4>
800041dc:	7ff00693          	li	a3,2047
800041e0:	1ed90863          	beq	s2,a3,800043d0 <__subdf3+0x2b4>
800041e4:	008006b7          	lui	a3,0x800
800041e8:	00d76733          	or	a4,a4,a3
800041ec:	00080593          	mv	a1,a6
800041f0:	03800693          	li	a3,56
800041f4:	0ab6c863          	blt	a3,a1,800042a4 <__subdf3+0x188>
800041f8:	01f00693          	li	a3,31
800041fc:	06b6ca63          	blt	a3,a1,80004270 <__subdf3+0x154>
80004200:	02000813          	li	a6,32
80004204:	40b80833          	sub	a6,a6,a1
80004208:	010716b3          	sll	a3,a4,a6
8000420c:	00b658b3          	srl	a7,a2,a1
80004210:	01061833          	sll	a6,a2,a6
80004214:	0116e6b3          	or	a3,a3,a7
80004218:	01003833          	snez	a6,a6
8000421c:	0106e6b3          	or	a3,a3,a6
80004220:	00b755b3          	srl	a1,a4,a1
80004224:	00a68533          	add	a0,a3,a0
80004228:	00f585b3          	add	a1,a1,a5
8000422c:	00d536b3          	sltu	a3,a0,a3
80004230:	00d587b3          	add	a5,a1,a3
80004234:	00879713          	slli	a4,a5,0x8
80004238:	18075c63          	bgez	a4,800043d0 <__subdf3+0x2b4>
8000423c:	00190913          	addi	s2,s2,1
80004240:	7ff00713          	li	a4,2047
80004244:	5ae90a63          	beq	s2,a4,800047f8 <__subdf3+0x6dc>
80004248:	ff800737          	lui	a4,0xff800
8000424c:	fff70713          	addi	a4,a4,-1 # ff7fffff <__stack_top+0x7f7e9c2f>
80004250:	00e7f733          	and	a4,a5,a4
80004254:	00155793          	srli	a5,a0,0x1
80004258:	00157513          	andi	a0,a0,1
8000425c:	00a7e7b3          	or	a5,a5,a0
80004260:	01f71513          	slli	a0,a4,0x1f
80004264:	00f56533          	or	a0,a0,a5
80004268:	00175793          	srli	a5,a4,0x1
8000426c:	1640006f          	j	800043d0 <__subdf3+0x2b4>
80004270:	fe058693          	addi	a3,a1,-32
80004274:	02000893          	li	a7,32
80004278:	00d756b3          	srl	a3,a4,a3
8000427c:	00000813          	li	a6,0
80004280:	01158863          	beq	a1,a7,80004290 <__subdf3+0x174>
80004284:	04000813          	li	a6,64
80004288:	40b80833          	sub	a6,a6,a1
8000428c:	01071833          	sll	a6,a4,a6
80004290:	00c86833          	or	a6,a6,a2
80004294:	01003833          	snez	a6,a6
80004298:	0106e6b3          	or	a3,a3,a6
8000429c:	00000593          	li	a1,0
800042a0:	f85ff06f          	j	80004224 <__subdf3+0x108>
800042a4:	00c766b3          	or	a3,a4,a2
800042a8:	00d036b3          	snez	a3,a3
800042ac:	ff1ff06f          	j	8000429c <__subdf3+0x180>
800042b0:	0c080a63          	beqz	a6,80004384 <__subdf3+0x268>
800042b4:	412886b3          	sub	a3,a7,s2
800042b8:	02091463          	bnez	s2,800042e0 <__subdf3+0x1c4>
800042bc:	00a7e5b3          	or	a1,a5,a0
800042c0:	50058e63          	beqz	a1,800047dc <__subdf3+0x6c0>
800042c4:	fff68593          	addi	a1,a3,-1 # 7fffff <__heap_size+0x7f2fff>
800042c8:	ee0584e3          	beqz	a1,800041b0 <__subdf3+0x94>
800042cc:	7ff00813          	li	a6,2047
800042d0:	03069263          	bne	a3,a6,800042f4 <__subdf3+0x1d8>
800042d4:	00070793          	mv	a5,a4
800042d8:	00060513          	mv	a0,a2
800042dc:	ef9ff06f          	j	800041d4 <__subdf3+0xb8>
800042e0:	7ff00593          	li	a1,2047
800042e4:	feb888e3          	beq	a7,a1,800042d4 <__subdf3+0x1b8>
800042e8:	008005b7          	lui	a1,0x800
800042ec:	00b7e7b3          	or	a5,a5,a1
800042f0:	00068593          	mv	a1,a3
800042f4:	03800693          	li	a3,56
800042f8:	08b6c063          	blt	a3,a1,80004378 <__subdf3+0x25c>
800042fc:	01f00693          	li	a3,31
80004300:	04b6c263          	blt	a3,a1,80004344 <__subdf3+0x228>
80004304:	02000813          	li	a6,32
80004308:	40b80833          	sub	a6,a6,a1
8000430c:	010796b3          	sll	a3,a5,a6
80004310:	00b55333          	srl	t1,a0,a1
80004314:	01051833          	sll	a6,a0,a6
80004318:	0066e6b3          	or	a3,a3,t1
8000431c:	01003833          	snez	a6,a6
80004320:	0106e6b3          	or	a3,a3,a6
80004324:	00b7d5b3          	srl	a1,a5,a1
80004328:	00c68633          	add	a2,a3,a2
8000432c:	00e585b3          	add	a1,a1,a4
80004330:	00d636b3          	sltu	a3,a2,a3
80004334:	00060513          	mv	a0,a2
80004338:	00d587b3          	add	a5,a1,a3
8000433c:	00088913          	mv	s2,a7
80004340:	ef5ff06f          	j	80004234 <__subdf3+0x118>
80004344:	fe058693          	addi	a3,a1,-32 # 7fffe0 <__heap_size+0x7f2fe0>
80004348:	02000313          	li	t1,32
8000434c:	00d7d6b3          	srl	a3,a5,a3
80004350:	00000813          	li	a6,0
80004354:	00658863          	beq	a1,t1,80004364 <__subdf3+0x248>
80004358:	04000813          	li	a6,64
8000435c:	40b80833          	sub	a6,a6,a1
80004360:	01079833          	sll	a6,a5,a6
80004364:	00a86833          	or	a6,a6,a0
80004368:	01003833          	snez	a6,a6
8000436c:	0106e6b3          	or	a3,a3,a6
80004370:	00000593          	li	a1,0
80004374:	fb5ff06f          	j	80004328 <__subdf3+0x20c>
80004378:	00a7e6b3          	or	a3,a5,a0
8000437c:	00d036b3          	snez	a3,a3
80004380:	ff1ff06f          	j	80004370 <__subdf3+0x254>
80004384:	00190693          	addi	a3,s2,1
80004388:	7fe6f593          	andi	a1,a3,2046
8000438c:	08059663          	bnez	a1,80004418 <__subdf3+0x2fc>
80004390:	00a7e6b3          	or	a3,a5,a0
80004394:	06091263          	bnez	s2,800043f8 <__subdf3+0x2dc>
80004398:	44068863          	beqz	a3,800047e8 <__subdf3+0x6cc>
8000439c:	00c766b3          	or	a3,a4,a2
800043a0:	02068863          	beqz	a3,800043d0 <__subdf3+0x2b4>
800043a4:	00c50633          	add	a2,a0,a2
800043a8:	00a636b3          	sltu	a3,a2,a0
800043ac:	00e78733          	add	a4,a5,a4
800043b0:	00d707b3          	add	a5,a4,a3
800043b4:	00879713          	slli	a4,a5,0x8
800043b8:	00060513          	mv	a0,a2
800043bc:	00075a63          	bgez	a4,800043d0 <__subdf3+0x2b4>
800043c0:	ff800737          	lui	a4,0xff800
800043c4:	fff70713          	addi	a4,a4,-1 # ff7fffff <__stack_top+0x7f7e9c2f>
800043c8:	00e7f7b3          	and	a5,a5,a4
800043cc:	00100913          	li	s2,1
800043d0:	00757713          	andi	a4,a0,7
800043d4:	44070863          	beqz	a4,80004824 <__subdf3+0x708>
800043d8:	00f57713          	andi	a4,a0,15
800043dc:	00400693          	li	a3,4
800043e0:	44d70263          	beq	a4,a3,80004824 <__subdf3+0x708>
800043e4:	00450713          	addi	a4,a0,4
800043e8:	00a736b3          	sltu	a3,a4,a0
800043ec:	00d787b3          	add	a5,a5,a3
800043f0:	00070513          	mv	a0,a4
800043f4:	4300006f          	j	80004824 <__subdf3+0x708>
800043f8:	ec068ee3          	beqz	a3,800042d4 <__subdf3+0x1b8>
800043fc:	00c76633          	or	a2,a4,a2
80004400:	dc060ae3          	beqz	a2,800041d4 <__subdf3+0xb8>
80004404:	00000493          	li	s1,0
80004408:	004007b7          	lui	a5,0x400
8000440c:	00000513          	li	a0,0
80004410:	7ff00913          	li	s2,2047
80004414:	4100006f          	j	80004824 <__subdf3+0x708>
80004418:	7ff00593          	li	a1,2047
8000441c:	3cb68c63          	beq	a3,a1,800047f4 <__subdf3+0x6d8>
80004420:	00c50633          	add	a2,a0,a2
80004424:	00a63533          	sltu	a0,a2,a0
80004428:	00e78733          	add	a4,a5,a4
8000442c:	00a70733          	add	a4,a4,a0
80004430:	01f71513          	slli	a0,a4,0x1f
80004434:	00165613          	srli	a2,a2,0x1
80004438:	00c56533          	or	a0,a0,a2
8000443c:	00175793          	srli	a5,a4,0x1
80004440:	00068913          	mv	s2,a3
80004444:	f8dff06f          	j	800043d0 <__subdf3+0x2b4>
80004448:	0f005c63          	blez	a6,80004540 <__subdf3+0x424>
8000444c:	08089e63          	bnez	a7,800044e8 <__subdf3+0x3cc>
80004450:	00c766b3          	or	a3,a4,a2
80004454:	3a068863          	beqz	a3,80004804 <__subdf3+0x6e8>
80004458:	fff80693          	addi	a3,a6,-1
8000445c:	02069063          	bnez	a3,8000447c <__subdf3+0x360>
80004460:	40c50633          	sub	a2,a0,a2
80004464:	00c536b3          	sltu	a3,a0,a2
80004468:	40e78733          	sub	a4,a5,a4
8000446c:	00060513          	mv	a0,a2
80004470:	40d707b3          	sub	a5,a4,a3
80004474:	00100913          	li	s2,1
80004478:	0540006f          	j	800044cc <__subdf3+0x3b0>
8000447c:	7ff00593          	li	a1,2047
80004480:	d4b80ae3          	beq	a6,a1,800041d4 <__subdf3+0xb8>
80004484:	03800593          	li	a1,56
80004488:	0ad5c663          	blt	a1,a3,80004534 <__subdf3+0x418>
8000448c:	01f00593          	li	a1,31
80004490:	06d5c863          	blt	a1,a3,80004500 <__subdf3+0x3e4>
80004494:	02000813          	li	a6,32
80004498:	40d80833          	sub	a6,a6,a3
8000449c:	00d658b3          	srl	a7,a2,a3
800044a0:	010715b3          	sll	a1,a4,a6
800044a4:	01061833          	sll	a6,a2,a6
800044a8:	0115e5b3          	or	a1,a1,a7
800044ac:	01003833          	snez	a6,a6
800044b0:	0105e633          	or	a2,a1,a6
800044b4:	00d756b3          	srl	a3,a4,a3
800044b8:	40c50633          	sub	a2,a0,a2
800044bc:	00c53733          	sltu	a4,a0,a2
800044c0:	40d786b3          	sub	a3,a5,a3
800044c4:	00060513          	mv	a0,a2
800044c8:	40e687b3          	sub	a5,a3,a4
800044cc:	00879713          	slli	a4,a5,0x8
800044d0:	f00750e3          	bgez	a4,800043d0 <__subdf3+0x2b4>
800044d4:	00800437          	lui	s0,0x800
800044d8:	fff40413          	addi	s0,s0,-1 # 7fffff <__heap_size+0x7f2fff>
800044dc:	0087f433          	and	s0,a5,s0
800044e0:	00050993          	mv	s3,a0
800044e4:	2100006f          	j	800046f4 <__subdf3+0x5d8>
800044e8:	7ff00693          	li	a3,2047
800044ec:	eed902e3          	beq	s2,a3,800043d0 <__subdf3+0x2b4>
800044f0:	008006b7          	lui	a3,0x800
800044f4:	00d76733          	or	a4,a4,a3
800044f8:	00080693          	mv	a3,a6
800044fc:	f89ff06f          	j	80004484 <__subdf3+0x368>
80004500:	fe068593          	addi	a1,a3,-32 # 7fffe0 <__heap_size+0x7f2fe0>
80004504:	02000893          	li	a7,32
80004508:	00b755b3          	srl	a1,a4,a1
8000450c:	00000813          	li	a6,0
80004510:	01168863          	beq	a3,a7,80004520 <__subdf3+0x404>
80004514:	04000813          	li	a6,64
80004518:	40d80833          	sub	a6,a6,a3
8000451c:	01071833          	sll	a6,a4,a6
80004520:	00c86833          	or	a6,a6,a2
80004524:	01003833          	snez	a6,a6
80004528:	0105e633          	or	a2,a1,a6
8000452c:	00000693          	li	a3,0
80004530:	f89ff06f          	j	800044b8 <__subdf3+0x39c>
80004534:	00c76633          	or	a2,a4,a2
80004538:	00c03633          	snez	a2,a2
8000453c:	ff1ff06f          	j	8000452c <__subdf3+0x410>
80004540:	0e080863          	beqz	a6,80004630 <__subdf3+0x514>
80004544:	41288833          	sub	a6,a7,s2
80004548:	04091263          	bnez	s2,8000458c <__subdf3+0x470>
8000454c:	00a7e5b3          	or	a1,a5,a0
80004550:	2a058e63          	beqz	a1,8000480c <__subdf3+0x6f0>
80004554:	fff80593          	addi	a1,a6,-1
80004558:	00059e63          	bnez	a1,80004574 <__subdf3+0x458>
8000455c:	40a60533          	sub	a0,a2,a0
80004560:	40f70733          	sub	a4,a4,a5
80004564:	00a63633          	sltu	a2,a2,a0
80004568:	40c707b3          	sub	a5,a4,a2
8000456c:	00068493          	mv	s1,a3
80004570:	f05ff06f          	j	80004474 <__subdf3+0x358>
80004574:	7ff00313          	li	t1,2047
80004578:	02681463          	bne	a6,t1,800045a0 <__subdf3+0x484>
8000457c:	00070793          	mv	a5,a4
80004580:	00060513          	mv	a0,a2
80004584:	7ff00913          	li	s2,2047
80004588:	0d00006f          	j	80004658 <__subdf3+0x53c>
8000458c:	7ff00593          	li	a1,2047
80004590:	feb886e3          	beq	a7,a1,8000457c <__subdf3+0x460>
80004594:	008005b7          	lui	a1,0x800
80004598:	00b7e7b3          	or	a5,a5,a1
8000459c:	00080593          	mv	a1,a6
800045a0:	03800813          	li	a6,56
800045a4:	08b84063          	blt	a6,a1,80004624 <__subdf3+0x508>
800045a8:	01f00813          	li	a6,31
800045ac:	04b84263          	blt	a6,a1,800045f0 <__subdf3+0x4d4>
800045b0:	02000313          	li	t1,32
800045b4:	40b30333          	sub	t1,t1,a1
800045b8:	00b55e33          	srl	t3,a0,a1
800045bc:	00679833          	sll	a6,a5,t1
800045c0:	00651333          	sll	t1,a0,t1
800045c4:	01c86833          	or	a6,a6,t3
800045c8:	00603333          	snez	t1,t1
800045cc:	00686533          	or	a0,a6,t1
800045d0:	00b7d5b3          	srl	a1,a5,a1
800045d4:	40a60533          	sub	a0,a2,a0
800045d8:	40b705b3          	sub	a1,a4,a1
800045dc:	00a63633          	sltu	a2,a2,a0
800045e0:	40c587b3          	sub	a5,a1,a2
800045e4:	00088913          	mv	s2,a7
800045e8:	00068493          	mv	s1,a3
800045ec:	ee1ff06f          	j	800044cc <__subdf3+0x3b0>
800045f0:	fe058813          	addi	a6,a1,-32 # 7fffe0 <__heap_size+0x7f2fe0>
800045f4:	02000e13          	li	t3,32
800045f8:	0107d833          	srl	a6,a5,a6
800045fc:	00000313          	li	t1,0
80004600:	01c58863          	beq	a1,t3,80004610 <__subdf3+0x4f4>
80004604:	04000313          	li	t1,64
80004608:	40b30333          	sub	t1,t1,a1
8000460c:	00679333          	sll	t1,a5,t1
80004610:	00a36333          	or	t1,t1,a0
80004614:	00603333          	snez	t1,t1
80004618:	00686533          	or	a0,a6,t1
8000461c:	00000593          	li	a1,0
80004620:	fb5ff06f          	j	800045d4 <__subdf3+0x4b8>
80004624:	00a7e533          	or	a0,a5,a0
80004628:	00a03533          	snez	a0,a0
8000462c:	ff1ff06f          	j	8000461c <__subdf3+0x500>
80004630:	00190593          	addi	a1,s2,1
80004634:	7fe5f593          	andi	a1,a1,2046
80004638:	08059663          	bnez	a1,800046c4 <__subdf3+0x5a8>
8000463c:	00c765b3          	or	a1,a4,a2
80004640:	00a7e833          	or	a6,a5,a0
80004644:	06091063          	bnez	s2,800046a4 <__subdf3+0x588>
80004648:	00081c63          	bnez	a6,80004660 <__subdf3+0x544>
8000464c:	10058e63          	beqz	a1,80004768 <__subdf3+0x64c>
80004650:	00070793          	mv	a5,a4
80004654:	00060513          	mv	a0,a2
80004658:	00068493          	mv	s1,a3
8000465c:	d75ff06f          	j	800043d0 <__subdf3+0x2b4>
80004660:	d60588e3          	beqz	a1,800043d0 <__subdf3+0x2b4>
80004664:	40c50833          	sub	a6,a0,a2
80004668:	010538b3          	sltu	a7,a0,a6
8000466c:	40e785b3          	sub	a1,a5,a4
80004670:	411585b3          	sub	a1,a1,a7
80004674:	00859893          	slli	a7,a1,0x8
80004678:	0008dc63          	bgez	a7,80004690 <__subdf3+0x574>
8000467c:	40a60533          	sub	a0,a2,a0
80004680:	40f70733          	sub	a4,a4,a5
80004684:	00a63633          	sltu	a2,a2,a0
80004688:	40c707b3          	sub	a5,a4,a2
8000468c:	fcdff06f          	j	80004658 <__subdf3+0x53c>
80004690:	00b86533          	or	a0,a6,a1
80004694:	18050463          	beqz	a0,8000481c <__subdf3+0x700>
80004698:	00058793          	mv	a5,a1
8000469c:	00080513          	mv	a0,a6
800046a0:	d31ff06f          	j	800043d0 <__subdf3+0x2b4>
800046a4:	00081c63          	bnez	a6,800046bc <__subdf3+0x5a0>
800046a8:	d4058ee3          	beqz	a1,80004404 <__subdf3+0x2e8>
800046ac:	00070793          	mv	a5,a4
800046b0:	00060513          	mv	a0,a2
800046b4:	00068493          	mv	s1,a3
800046b8:	b1dff06f          	j	800041d4 <__subdf3+0xb8>
800046bc:	b0058ce3          	beqz	a1,800041d4 <__subdf3+0xb8>
800046c0:	d45ff06f          	j	80004404 <__subdf3+0x2e8>
800046c4:	40c505b3          	sub	a1,a0,a2
800046c8:	00b53833          	sltu	a6,a0,a1
800046cc:	40e78433          	sub	s0,a5,a4
800046d0:	41040433          	sub	s0,s0,a6
800046d4:	00841813          	slli	a6,s0,0x8
800046d8:	00058993          	mv	s3,a1
800046dc:	08085063          	bgez	a6,8000475c <__subdf3+0x640>
800046e0:	40a609b3          	sub	s3,a2,a0
800046e4:	40f70433          	sub	s0,a4,a5
800046e8:	01363633          	sltu	a2,a2,s3
800046ec:	40c40433          	sub	s0,s0,a2
800046f0:	00068493          	mv	s1,a3
800046f4:	06040e63          	beqz	s0,80004770 <__subdf3+0x654>
800046f8:	00040513          	mv	a0,s0
800046fc:	459000ef          	jal	80005354 <__clzsi2>
80004700:	ff850693          	addi	a3,a0,-8
80004704:	02000793          	li	a5,32
80004708:	40d787b3          	sub	a5,a5,a3
8000470c:	00d41433          	sll	s0,s0,a3
80004710:	00f9d7b3          	srl	a5,s3,a5
80004714:	0087e7b3          	or	a5,a5,s0
80004718:	00d99433          	sll	s0,s3,a3
8000471c:	0b26c463          	blt	a3,s2,800047c4 <__subdf3+0x6a8>
80004720:	412686b3          	sub	a3,a3,s2
80004724:	00168613          	addi	a2,a3,1
80004728:	01f00713          	li	a4,31
8000472c:	06c74263          	blt	a4,a2,80004790 <__subdf3+0x674>
80004730:	02000713          	li	a4,32
80004734:	40c70733          	sub	a4,a4,a2
80004738:	00e79533          	sll	a0,a5,a4
8000473c:	00c456b3          	srl	a3,s0,a2
80004740:	00e41733          	sll	a4,s0,a4
80004744:	00d56533          	or	a0,a0,a3
80004748:	00e03733          	snez	a4,a4
8000474c:	00e56533          	or	a0,a0,a4
80004750:	00c7d7b3          	srl	a5,a5,a2
80004754:	00000913          	li	s2,0
80004758:	c79ff06f          	j	800043d0 <__subdf3+0x2b4>
8000475c:	0085e5b3          	or	a1,a1,s0
80004760:	f8059ae3          	bnez	a1,800046f4 <__subdf3+0x5d8>
80004764:	00000913          	li	s2,0
80004768:	00000493          	li	s1,0
8000476c:	08c0006f          	j	800047f8 <__subdf3+0x6dc>
80004770:	00098513          	mv	a0,s3
80004774:	3e1000ef          	jal	80005354 <__clzsi2>
80004778:	01850693          	addi	a3,a0,24
8000477c:	01f00793          	li	a5,31
80004780:	f8d7d2e3          	bge	a5,a3,80004704 <__subdf3+0x5e8>
80004784:	ff850793          	addi	a5,a0,-8
80004788:	00f997b3          	sll	a5,s3,a5
8000478c:	f91ff06f          	j	8000471c <__subdf3+0x600>
80004790:	fe168693          	addi	a3,a3,-31
80004794:	00d7d533          	srl	a0,a5,a3
80004798:	02000693          	li	a3,32
8000479c:	00000713          	li	a4,0
800047a0:	00d60863          	beq	a2,a3,800047b0 <__subdf3+0x694>
800047a4:	04000713          	li	a4,64
800047a8:	40c70733          	sub	a4,a4,a2
800047ac:	00e79733          	sll	a4,a5,a4
800047b0:	00e46733          	or	a4,s0,a4
800047b4:	00e03733          	snez	a4,a4
800047b8:	00e56533          	or	a0,a0,a4
800047bc:	00000793          	li	a5,0
800047c0:	f95ff06f          	j	80004754 <__subdf3+0x638>
800047c4:	ff800737          	lui	a4,0xff800
800047c8:	fff70713          	addi	a4,a4,-1 # ff7fffff <__stack_top+0x7f7e9c2f>
800047cc:	40d90933          	sub	s2,s2,a3
800047d0:	00e7f7b3          	and	a5,a5,a4
800047d4:	00040513          	mv	a0,s0
800047d8:	bf9ff06f          	j	800043d0 <__subdf3+0x2b4>
800047dc:	00070793          	mv	a5,a4
800047e0:	00060513          	mv	a0,a2
800047e4:	c5dff06f          	j	80004440 <__subdf3+0x324>
800047e8:	00070793          	mv	a5,a4
800047ec:	00060513          	mv	a0,a2
800047f0:	be1ff06f          	j	800043d0 <__subdf3+0x2b4>
800047f4:	7ff00913          	li	s2,2047
800047f8:	00000793          	li	a5,0
800047fc:	00000513          	li	a0,0
80004800:	0240006f          	j	80004824 <__subdf3+0x708>
80004804:	00080913          	mv	s2,a6
80004808:	bc9ff06f          	j	800043d0 <__subdf3+0x2b4>
8000480c:	00070793          	mv	a5,a4
80004810:	00060513          	mv	a0,a2
80004814:	00080913          	mv	s2,a6
80004818:	e41ff06f          	j	80004658 <__subdf3+0x53c>
8000481c:	00000793          	li	a5,0
80004820:	00000493          	li	s1,0
80004824:	00879713          	slli	a4,a5,0x8
80004828:	00075e63          	bgez	a4,80004844 <__subdf3+0x728>
8000482c:	00190913          	addi	s2,s2,1
80004830:	7ff00713          	li	a4,2047
80004834:	08e90263          	beq	s2,a4,800048b8 <__subdf3+0x79c>
80004838:	ff800737          	lui	a4,0xff800
8000483c:	fff70713          	addi	a4,a4,-1 # ff7fffff <__stack_top+0x7f7e9c2f>
80004840:	00e7f7b3          	and	a5,a5,a4
80004844:	01d79693          	slli	a3,a5,0x1d
80004848:	00355513          	srli	a0,a0,0x3
8000484c:	7ff00713          	li	a4,2047
80004850:	00a6e6b3          	or	a3,a3,a0
80004854:	0037d793          	srli	a5,a5,0x3
80004858:	00e91e63          	bne	s2,a4,80004874 <__subdf3+0x758>
8000485c:	00f6e6b3          	or	a3,a3,a5
80004860:	00000793          	li	a5,0
80004864:	00068863          	beqz	a3,80004874 <__subdf3+0x758>
80004868:	000807b7          	lui	a5,0x80
8000486c:	00000693          	li	a3,0
80004870:	00000493          	li	s1,0
80004874:	01491713          	slli	a4,s2,0x14
80004878:	7ff00637          	lui	a2,0x7ff00
8000487c:	00c79793          	slli	a5,a5,0xc
80004880:	00c77733          	and	a4,a4,a2
80004884:	01c12083          	lw	ra,28(sp)
80004888:	01812403          	lw	s0,24(sp)
8000488c:	00c7d793          	srli	a5,a5,0xc
80004890:	00f767b3          	or	a5,a4,a5
80004894:	01f49713          	slli	a4,s1,0x1f
80004898:	00e7e633          	or	a2,a5,a4
8000489c:	01412483          	lw	s1,20(sp)
800048a0:	01012903          	lw	s2,16(sp)
800048a4:	00c12983          	lw	s3,12(sp)
800048a8:	00068513          	mv	a0,a3
800048ac:	00060593          	mv	a1,a2
800048b0:	02010113          	addi	sp,sp,32
800048b4:	00008067          	ret
800048b8:	00000793          	li	a5,0
800048bc:	00000513          	li	a0,0
800048c0:	f85ff06f          	j	80004844 <__subdf3+0x728>

800048c4 <__fixunsdfsi>:
800048c4:	0145d713          	srli	a4,a1,0x14
800048c8:	00100837          	lui	a6,0x100
800048cc:	fff80793          	addi	a5,a6,-1 # fffff <__heap_size+0xf2fff>
800048d0:	7ff77713          	andi	a4,a4,2047
800048d4:	3fe00613          	li	a2,1022
800048d8:	00b7f7b3          	and	a5,a5,a1
800048dc:	00050693          	mv	a3,a0
800048e0:	01f5d593          	srli	a1,a1,0x1f
800048e4:	04e65a63          	bge	a2,a4,80004938 <__fixunsdfsi+0x74>
800048e8:	0015c613          	xori	a2,a1,1
800048ec:	41e60613          	addi	a2,a2,1054 # 7ff0041e <__heap_size+0x7fef341e>
800048f0:	fff58513          	addi	a0,a1,-1
800048f4:	04c75463          	bge	a4,a2,8000493c <__fixunsdfsi+0x78>
800048f8:	00000513          	li	a0,0
800048fc:	04059063          	bnez	a1,8000493c <__fixunsdfsi+0x78>
80004900:	43300613          	li	a2,1075
80004904:	40e60633          	sub	a2,a2,a4
80004908:	01f00593          	li	a1,31
8000490c:	0107e7b3          	or	a5,a5,a6
80004910:	00c5cc63          	blt	a1,a2,80004928 <__fixunsdfsi+0x64>
80004914:	bed70713          	addi	a4,a4,-1043
80004918:	00e797b3          	sll	a5,a5,a4
8000491c:	00c6d533          	srl	a0,a3,a2
80004920:	00a7e533          	or	a0,a5,a0
80004924:	00008067          	ret
80004928:	41300693          	li	a3,1043
8000492c:	40e68733          	sub	a4,a3,a4
80004930:	00e7d533          	srl	a0,a5,a4
80004934:	00008067          	ret
80004938:	00000513          	li	a0,0
8000493c:	00008067          	ret

80004940 <__floatunsidf>:
80004940:	ff010113          	addi	sp,sp,-16
80004944:	00812423          	sw	s0,8(sp)
80004948:	00112623          	sw	ra,12(sp)
8000494c:	00050413          	mv	s0,a0
80004950:	06050263          	beqz	a0,800049b4 <__floatunsidf+0x74>
80004954:	201000ef          	jal	80005354 <__clzsi2>
80004958:	41e00713          	li	a4,1054
8000495c:	00a00793          	li	a5,10
80004960:	40a70733          	sub	a4,a4,a0
80004964:	04a7c063          	blt	a5,a0,800049a4 <__floatunsidf+0x64>
80004968:	00b00793          	li	a5,11
8000496c:	40a787b3          	sub	a5,a5,a0
80004970:	01550513          	addi	a0,a0,21
80004974:	00f457b3          	srl	a5,s0,a5
80004978:	00a41433          	sll	s0,s0,a0
8000497c:	00c12083          	lw	ra,12(sp)
80004980:	00040513          	mv	a0,s0
80004984:	00c79793          	slli	a5,a5,0xc
80004988:	00812403          	lw	s0,8(sp)
8000498c:	01471713          	slli	a4,a4,0x14
80004990:	00c7d793          	srli	a5,a5,0xc
80004994:	00f766b3          	or	a3,a4,a5
80004998:	00068593          	mv	a1,a3
8000499c:	01010113          	addi	sp,sp,16
800049a0:	00008067          	ret
800049a4:	ff550513          	addi	a0,a0,-11
800049a8:	00a417b3          	sll	a5,s0,a0
800049ac:	00000413          	li	s0,0
800049b0:	fcdff06f          	j	8000497c <__floatunsidf+0x3c>
800049b4:	00000793          	li	a5,0
800049b8:	00000713          	li	a4,0
800049bc:	fc1ff06f          	j	8000497c <__floatunsidf+0x3c>

800049c0 <__fixunsdfdi>:
800049c0:	001006b7          	lui	a3,0x100
800049c4:	0145d613          	srli	a2,a1,0x14
800049c8:	fff68793          	addi	a5,a3,-1 # fffff <__heap_size+0xf2fff>
800049cc:	7ff67613          	andi	a2,a2,2047
800049d0:	3fe00713          	li	a4,1022
800049d4:	00b7f7b3          	and	a5,a5,a1
800049d8:	08c75463          	bge	a4,a2,80004a60 <__fixunsdfdi+0xa0>
800049dc:	01f5d593          	srli	a1,a1,0x1f
800049e0:	0015c713          	xori	a4,a1,1
800049e4:	43e70713          	addi	a4,a4,1086
800049e8:	02e65863          	bge	a2,a4,80004a18 <__fixunsdfdi+0x58>
800049ec:	06059a63          	bnez	a1,80004a60 <__fixunsdfdi+0xa0>
800049f0:	00d7e5b3          	or	a1,a5,a3
800049f4:	43200793          	li	a5,1074
800049f8:	02c7d663          	bge	a5,a2,80004a24 <__fixunsdfdi+0x64>
800049fc:	ff010113          	addi	sp,sp,-16
80004a00:	bcd60613          	addi	a2,a2,-1075
80004a04:	00112623          	sw	ra,12(sp)
80004a08:	115000ef          	jal	8000531c <__ashldi3>
80004a0c:	00c12083          	lw	ra,12(sp)
80004a10:	01010113          	addi	sp,sp,16
80004a14:	00008067          	ret
80004a18:	fff58513          	addi	a0,a1,-1
80004a1c:	00050593          	mv	a1,a0
80004a20:	00008067          	ret
80004a24:	43300793          	li	a5,1075
80004a28:	40c787b3          	sub	a5,a5,a2
80004a2c:	01f00713          	li	a4,31
80004a30:	00f74e63          	blt	a4,a5,80004a4c <__fixunsdfdi+0x8c>
80004a34:	bed60613          	addi	a2,a2,-1043
80004a38:	00c59633          	sll	a2,a1,a2
80004a3c:	00f55533          	srl	a0,a0,a5
80004a40:	00a66533          	or	a0,a2,a0
80004a44:	00f5d5b3          	srl	a1,a1,a5
80004a48:	00008067          	ret
80004a4c:	41300513          	li	a0,1043
80004a50:	40c50533          	sub	a0,a0,a2
80004a54:	00a5d533          	srl	a0,a1,a0
80004a58:	00000593          	li	a1,0
80004a5c:	00008067          	ret
80004a60:	00000513          	li	a0,0
80004a64:	ff5ff06f          	j	80004a58 <__fixunsdfdi+0x98>

80004a68 <__addsf3>:
80004a68:	008006b7          	lui	a3,0x800
80004a6c:	fff68693          	addi	a3,a3,-1 # 7fffff <__heap_size+0x7f2fff>
80004a70:	ff010113          	addi	sp,sp,-16
80004a74:	00a6f633          	and	a2,a3,a0
80004a78:	01755713          	srli	a4,a0,0x17
80004a7c:	00812423          	sw	s0,8(sp)
80004a80:	01f55413          	srli	s0,a0,0x1f
80004a84:	00361513          	slli	a0,a2,0x3
80004a88:	0175d613          	srli	a2,a1,0x17
80004a8c:	00b6f6b3          	and	a3,a3,a1
80004a90:	01212023          	sw	s2,0(sp)
80004a94:	0ff67613          	zext.b	a2,a2
80004a98:	0ff77913          	zext.b	s2,a4
80004a9c:	00112623          	sw	ra,12(sp)
80004aa0:	00912223          	sw	s1,4(sp)
80004aa4:	01f5d593          	srli	a1,a1,0x1f
80004aa8:	00369793          	slli	a5,a3,0x3
80004aac:	40c906b3          	sub	a3,s2,a2
80004ab0:	18b41063          	bne	s0,a1,80004c30 <__addsf3+0x1c8>
80004ab4:	08d05c63          	blez	a3,80004b4c <__addsf3+0xe4>
80004ab8:	02061663          	bnez	a2,80004ae4 <__addsf3+0x7c>
80004abc:	02078063          	beqz	a5,80004adc <__addsf3+0x74>
80004ac0:	fff90693          	addi	a3,s2,-1
80004ac4:	00069863          	bnez	a3,80004ad4 <__addsf3+0x6c>
80004ac8:	00a787b3          	add	a5,a5,a0
80004acc:	00100913          	li	s2,1
80004ad0:	04c0006f          	j	80004b1c <__addsf3+0xb4>
80004ad4:	0ff00713          	li	a4,255
80004ad8:	00e91e63          	bne	s2,a4,80004af4 <__addsf3+0x8c>
80004adc:	00050793          	mv	a5,a0
80004ae0:	10c0006f          	j	80004bec <__addsf3+0x184>
80004ae4:	0ff00713          	li	a4,255
80004ae8:	fee90ae3          	beq	s2,a4,80004adc <__addsf3+0x74>
80004aec:	04000737          	lui	a4,0x4000
80004af0:	00e7e7b3          	or	a5,a5,a4
80004af4:	01b00613          	li	a2,27
80004af8:	00100713          	li	a4,1
80004afc:	00d64e63          	blt	a2,a3,80004b18 <__addsf3+0xb0>
80004b00:	02000613          	li	a2,32
80004b04:	00d7d733          	srl	a4,a5,a3
80004b08:	40d606b3          	sub	a3,a2,a3
80004b0c:	00d796b3          	sll	a3,a5,a3
80004b10:	00d036b3          	snez	a3,a3
80004b14:	00d76733          	or	a4,a4,a3
80004b18:	00a707b3          	add	a5,a4,a0
80004b1c:	00579713          	slli	a4,a5,0x5
80004b20:	0c075663          	bgez	a4,80004bec <__addsf3+0x184>
80004b24:	00190913          	addi	s2,s2,1
80004b28:	0ff00713          	li	a4,255
80004b2c:	2ce90a63          	beq	s2,a4,80004e00 <__addsf3+0x398>
80004b30:	7e000737          	lui	a4,0x7e000
80004b34:	0017f693          	andi	a3,a5,1
80004b38:	fff70713          	addi	a4,a4,-1 # 7dffffff <__heap_size+0x7dff2fff>
80004b3c:	0017d793          	srli	a5,a5,0x1
80004b40:	00e7f7b3          	and	a5,a5,a4
80004b44:	00d7e7b3          	or	a5,a5,a3
80004b48:	0a40006f          	j	80004bec <__addsf3+0x184>
80004b4c:	06068663          	beqz	a3,80004bb8 <__addsf3+0x150>
80004b50:	41260733          	sub	a4,a2,s2
80004b54:	02091063          	bnez	s2,80004b74 <__addsf3+0x10c>
80004b58:	0c050863          	beqz	a0,80004c28 <__addsf3+0x1c0>
80004b5c:	fff70693          	addi	a3,a4,-1
80004b60:	f60684e3          	beqz	a3,80004ac8 <__addsf3+0x60>
80004b64:	0ff00593          	li	a1,255
80004b68:	02b71063          	bne	a4,a1,80004b88 <__addsf3+0x120>
80004b6c:	0ff00913          	li	s2,255
80004b70:	07c0006f          	j	80004bec <__addsf3+0x184>
80004b74:	0ff00693          	li	a3,255
80004b78:	fed60ae3          	beq	a2,a3,80004b6c <__addsf3+0x104>
80004b7c:	040006b7          	lui	a3,0x4000
80004b80:	00d56533          	or	a0,a0,a3
80004b84:	00070693          	mv	a3,a4
80004b88:	01b00593          	li	a1,27
80004b8c:	00100713          	li	a4,1
80004b90:	00d5ce63          	blt	a1,a3,80004bac <__addsf3+0x144>
80004b94:	02000713          	li	a4,32
80004b98:	40d70733          	sub	a4,a4,a3
80004b9c:	00e51733          	sll	a4,a0,a4
80004ba0:	00d555b3          	srl	a1,a0,a3
80004ba4:	00e03733          	snez	a4,a4
80004ba8:	00e5e733          	or	a4,a1,a4
80004bac:	00e787b3          	add	a5,a5,a4
80004bb0:	00060913          	mv	s2,a2
80004bb4:	f69ff06f          	j	80004b1c <__addsf3+0xb4>
80004bb8:	00190713          	addi	a4,s2,1
80004bbc:	0fe77693          	andi	a3,a4,254
80004bc0:	04069c63          	bnez	a3,80004c18 <__addsf3+0x1b0>
80004bc4:	04091263          	bnez	s2,80004c08 <__addsf3+0x1a0>
80004bc8:	02050263          	beqz	a0,80004bec <__addsf3+0x184>
80004bcc:	f00788e3          	beqz	a5,80004adc <__addsf3+0x74>
80004bd0:	00a787b3          	add	a5,a5,a0
80004bd4:	00579713          	slli	a4,a5,0x5
80004bd8:	00075a63          	bgez	a4,80004bec <__addsf3+0x184>
80004bdc:	fc000737          	lui	a4,0xfc000
80004be0:	fff70713          	addi	a4,a4,-1 # fbffffff <__stack_top+0x7bfe9c2f>
80004be4:	00e7f7b3          	and	a5,a5,a4
80004be8:	00100913          	li	s2,1
80004bec:	0077f713          	andi	a4,a5,7
80004bf0:	20070a63          	beqz	a4,80004e04 <__addsf3+0x39c>
80004bf4:	00f7f713          	andi	a4,a5,15
80004bf8:	00400693          	li	a3,4
80004bfc:	20d70463          	beq	a4,a3,80004e04 <__addsf3+0x39c>
80004c00:	00478793          	addi	a5,a5,4 # 80004 <__heap_size+0x73004>
80004c04:	2000006f          	j	80004e04 <__addsf3+0x39c>
80004c08:	f60502e3          	beqz	a0,80004b6c <__addsf3+0x104>
80004c0c:	16079663          	bnez	a5,80004d78 <__addsf3+0x310>
80004c10:	00050793          	mv	a5,a0
80004c14:	f59ff06f          	j	80004b6c <__addsf3+0x104>
80004c18:	0ff00693          	li	a3,255
80004c1c:	1ed70063          	beq	a4,a3,80004dfc <__addsf3+0x394>
80004c20:	00f507b3          	add	a5,a0,a5
80004c24:	0017d793          	srli	a5,a5,0x1
80004c28:	00070913          	mv	s2,a4
80004c2c:	fc1ff06f          	j	80004bec <__addsf3+0x184>
80004c30:	06d05e63          	blez	a3,80004cac <__addsf3+0x244>
80004c34:	06061263          	bnez	a2,80004c98 <__addsf3+0x230>
80004c38:	ea0782e3          	beqz	a5,80004adc <__addsf3+0x74>
80004c3c:	fff90693          	addi	a3,s2,-1
80004c40:	00069863          	bnez	a3,80004c50 <__addsf3+0x1e8>
80004c44:	40f507b3          	sub	a5,a0,a5
80004c48:	00100913          	li	s2,1
80004c4c:	0340006f          	j	80004c80 <__addsf3+0x218>
80004c50:	0ff00713          	li	a4,255
80004c54:	e8e904e3          	beq	s2,a4,80004adc <__addsf3+0x74>
80004c58:	01b00613          	li	a2,27
80004c5c:	00100713          	li	a4,1
80004c60:	00d64e63          	blt	a2,a3,80004c7c <__addsf3+0x214>
80004c64:	02000613          	li	a2,32
80004c68:	00d7d733          	srl	a4,a5,a3
80004c6c:	40d606b3          	sub	a3,a2,a3
80004c70:	00d796b3          	sll	a3,a5,a3
80004c74:	00d036b3          	snez	a3,a3
80004c78:	00d76733          	or	a4,a4,a3
80004c7c:	40e507b3          	sub	a5,a0,a4
80004c80:	00579713          	slli	a4,a5,0x5
80004c84:	f60754e3          	bgez	a4,80004bec <__addsf3+0x184>
80004c88:	040004b7          	lui	s1,0x4000
80004c8c:	fff48493          	addi	s1,s1,-1 # 3ffffff <__heap_size+0x3ff2fff>
80004c90:	0097f4b3          	and	s1,a5,s1
80004c94:	1080006f          	j	80004d9c <__addsf3+0x334>
80004c98:	0ff00713          	li	a4,255
80004c9c:	e4e900e3          	beq	s2,a4,80004adc <__addsf3+0x74>
80004ca0:	04000737          	lui	a4,0x4000
80004ca4:	00e7e7b3          	or	a5,a5,a4
80004ca8:	fb1ff06f          	j	80004c58 <__addsf3+0x1f0>
80004cac:	06068e63          	beqz	a3,80004d28 <__addsf3+0x2c0>
80004cb0:	41260733          	sub	a4,a2,s2
80004cb4:	02091663          	bnez	s2,80004ce0 <__addsf3+0x278>
80004cb8:	1a050e63          	beqz	a0,80004e74 <__addsf3+0x40c>
80004cbc:	fff70693          	addi	a3,a4,-1 # 3ffffff <__heap_size+0x3ff2fff>
80004cc0:	00069863          	bnez	a3,80004cd0 <__addsf3+0x268>
80004cc4:	40a787b3          	sub	a5,a5,a0
80004cc8:	00058413          	mv	s0,a1
80004ccc:	f7dff06f          	j	80004c48 <__addsf3+0x1e0>
80004cd0:	0ff00813          	li	a6,255
80004cd4:	03071063          	bne	a4,a6,80004cf4 <__addsf3+0x28c>
80004cd8:	0ff00913          	li	s2,255
80004cdc:	19c0006f          	j	80004e78 <__addsf3+0x410>
80004ce0:	0ff00693          	li	a3,255
80004ce4:	fed60ae3          	beq	a2,a3,80004cd8 <__addsf3+0x270>
80004ce8:	040006b7          	lui	a3,0x4000
80004cec:	00d56533          	or	a0,a0,a3
80004cf0:	00070693          	mv	a3,a4
80004cf4:	01b00813          	li	a6,27
80004cf8:	00100713          	li	a4,1
80004cfc:	00d84e63          	blt	a6,a3,80004d18 <__addsf3+0x2b0>
80004d00:	02000713          	li	a4,32
80004d04:	40d70733          	sub	a4,a4,a3
80004d08:	00e51733          	sll	a4,a0,a4
80004d0c:	00d55833          	srl	a6,a0,a3
80004d10:	00e03733          	snez	a4,a4
80004d14:	00e86733          	or	a4,a6,a4
80004d18:	40e787b3          	sub	a5,a5,a4
80004d1c:	00060913          	mv	s2,a2
80004d20:	00058413          	mv	s0,a1
80004d24:	f5dff06f          	j	80004c80 <__addsf3+0x218>
80004d28:	00190713          	addi	a4,s2,1
80004d2c:	0fe77713          	andi	a4,a4,254
80004d30:	04071c63          	bnez	a4,80004d88 <__addsf3+0x320>
80004d34:	02091c63          	bnez	s2,80004d6c <__addsf3+0x304>
80004d38:	00051863          	bnez	a0,80004d48 <__addsf3+0x2e0>
80004d3c:	12079e63          	bnez	a5,80004e78 <__addsf3+0x410>
80004d40:	00000413          	li	s0,0
80004d44:	0c00006f          	j	80004e04 <__addsf3+0x39c>
80004d48:	d8078ae3          	beqz	a5,80004adc <__addsf3+0x74>
80004d4c:	40f50733          	sub	a4,a0,a5
80004d50:	00571693          	slli	a3,a4,0x5
80004d54:	40a787b3          	sub	a5,a5,a0
80004d58:	1206c063          	bltz	a3,80004e78 <__addsf3+0x410>
80004d5c:	00070793          	mv	a5,a4
80004d60:	e80716e3          	bnez	a4,80004bec <__addsf3+0x184>
80004d64:	00000793          	li	a5,0
80004d68:	fd9ff06f          	j	80004d40 <__addsf3+0x2d8>
80004d6c:	ea0510e3          	bnez	a0,80004c0c <__addsf3+0x1a4>
80004d70:	00058413          	mv	s0,a1
80004d74:	de079ce3          	bnez	a5,80004b6c <__addsf3+0x104>
80004d78:	00000413          	li	s0,0
80004d7c:	020007b7          	lui	a5,0x2000
80004d80:	0ff00913          	li	s2,255
80004d84:	0800006f          	j	80004e04 <__addsf3+0x39c>
80004d88:	40f504b3          	sub	s1,a0,a5
80004d8c:	00549713          	slli	a4,s1,0x5
80004d90:	04075463          	bgez	a4,80004dd8 <__addsf3+0x370>
80004d94:	40a784b3          	sub	s1,a5,a0
80004d98:	00058413          	mv	s0,a1
80004d9c:	00048513          	mv	a0,s1
80004da0:	5b4000ef          	jal	80005354 <__clzsi2>
80004da4:	ffb50513          	addi	a0,a0,-5
80004da8:	00a494b3          	sll	s1,s1,a0
80004dac:	03254e63          	blt	a0,s2,80004de8 <__addsf3+0x380>
80004db0:	41250533          	sub	a0,a0,s2
80004db4:	00150513          	addi	a0,a0,1
80004db8:	02000713          	li	a4,32
80004dbc:	40a70733          	sub	a4,a4,a0
80004dc0:	00a4d7b3          	srl	a5,s1,a0
80004dc4:	00e494b3          	sll	s1,s1,a4
80004dc8:	009034b3          	snez	s1,s1
80004dcc:	0097e7b3          	or	a5,a5,s1
80004dd0:	00000913          	li	s2,0
80004dd4:	e19ff06f          	j	80004bec <__addsf3+0x184>
80004dd8:	fc0492e3          	bnez	s1,80004d9c <__addsf3+0x334>
80004ddc:	00000793          	li	a5,0
80004de0:	00000913          	li	s2,0
80004de4:	f5dff06f          	j	80004d40 <__addsf3+0x2d8>
80004de8:	fc0007b7          	lui	a5,0xfc000
80004dec:	fff78793          	addi	a5,a5,-1 # fbffffff <__stack_top+0x7bfe9c2f>
80004df0:	40a90933          	sub	s2,s2,a0
80004df4:	00f4f7b3          	and	a5,s1,a5
80004df8:	df5ff06f          	j	80004bec <__addsf3+0x184>
80004dfc:	0ff00913          	li	s2,255
80004e00:	00000793          	li	a5,0
80004e04:	00579713          	slli	a4,a5,0x5
80004e08:	00075e63          	bgez	a4,80004e24 <__addsf3+0x3bc>
80004e0c:	00190913          	addi	s2,s2,1
80004e10:	0ff00713          	li	a4,255
80004e14:	06e90663          	beq	s2,a4,80004e80 <__addsf3+0x418>
80004e18:	fc000737          	lui	a4,0xfc000
80004e1c:	fff70713          	addi	a4,a4,-1 # fbffffff <__stack_top+0x7bfe9c2f>
80004e20:	00e7f7b3          	and	a5,a5,a4
80004e24:	0ff00713          	li	a4,255
80004e28:	0037d793          	srli	a5,a5,0x3
80004e2c:	00e91863          	bne	s2,a4,80004e3c <__addsf3+0x3d4>
80004e30:	00078663          	beqz	a5,80004e3c <__addsf3+0x3d4>
80004e34:	004007b7          	lui	a5,0x400
80004e38:	00000413          	li	s0,0
80004e3c:	00c12083          	lw	ra,12(sp)
80004e40:	01791713          	slli	a4,s2,0x17
80004e44:	01f41513          	slli	a0,s0,0x1f
80004e48:	7f8006b7          	lui	a3,0x7f800
80004e4c:	00812403          	lw	s0,8(sp)
80004e50:	00979793          	slli	a5,a5,0x9
80004e54:	00d77733          	and	a4,a4,a3
80004e58:	0097d793          	srli	a5,a5,0x9
80004e5c:	00f767b3          	or	a5,a4,a5
80004e60:	00412483          	lw	s1,4(sp)
80004e64:	00012903          	lw	s2,0(sp)
80004e68:	00a7e533          	or	a0,a5,a0
80004e6c:	01010113          	addi	sp,sp,16
80004e70:	00008067          	ret
80004e74:	00070913          	mv	s2,a4
80004e78:	00058413          	mv	s0,a1
80004e7c:	d71ff06f          	j	80004bec <__addsf3+0x184>
80004e80:	00000793          	li	a5,0
80004e84:	fa1ff06f          	j	80004e24 <__addsf3+0x3bc>

80004e88 <__mulsf3>:
80004e88:	fe010113          	addi	sp,sp,-32
80004e8c:	01212823          	sw	s2,16(sp)
80004e90:	01755913          	srli	s2,a0,0x17
80004e94:	00912a23          	sw	s1,20(sp)
80004e98:	01312623          	sw	s3,12(sp)
80004e9c:	01512223          	sw	s5,4(sp)
80004ea0:	00951493          	slli	s1,a0,0x9
80004ea4:	00112e23          	sw	ra,28(sp)
80004ea8:	00812c23          	sw	s0,24(sp)
80004eac:	01412423          	sw	s4,8(sp)
80004eb0:	0ff97913          	zext.b	s2,s2
80004eb4:	00058a93          	mv	s5,a1
80004eb8:	0094d493          	srli	s1,s1,0x9
80004ebc:	01f55993          	srli	s3,a0,0x1f
80004ec0:	10090863          	beqz	s2,80004fd0 <__mulsf3+0x148>
80004ec4:	0ff00793          	li	a5,255
80004ec8:	12f90463          	beq	s2,a5,80004ff0 <__mulsf3+0x168>
80004ecc:	00349493          	slli	s1,s1,0x3
80004ed0:	040007b7          	lui	a5,0x4000
80004ed4:	00f4e4b3          	or	s1,s1,a5
80004ed8:	f8190913          	addi	s2,s2,-127
80004edc:	00000a13          	li	s4,0
80004ee0:	017ad793          	srli	a5,s5,0x17
80004ee4:	009a9413          	slli	s0,s5,0x9
80004ee8:	0ff7f793          	zext.b	a5,a5
80004eec:	00945413          	srli	s0,s0,0x9
80004ef0:	01fada93          	srli	s5,s5,0x1f
80004ef4:	10078e63          	beqz	a5,80005010 <__mulsf3+0x188>
80004ef8:	0ff00713          	li	a4,255
80004efc:	12e78a63          	beq	a5,a4,80005030 <__mulsf3+0x1a8>
80004f00:	00341413          	slli	s0,s0,0x3
80004f04:	04000737          	lui	a4,0x4000
80004f08:	00e46433          	or	s0,s0,a4
80004f0c:	f8178793          	addi	a5,a5,-127 # 3ffff81 <__heap_size+0x3ff2f81>
80004f10:	00000713          	li	a4,0
80004f14:	00f90933          	add	s2,s2,a5
80004f18:	002a1793          	slli	a5,s4,0x2
80004f1c:	00e7e7b3          	or	a5,a5,a4
80004f20:	00a00613          	li	a2,10
80004f24:	00190693          	addi	a3,s2,1
80004f28:	1ef64263          	blt	a2,a5,8000510c <__mulsf3+0x284>
80004f2c:	00200613          	li	a2,2
80004f30:	0159c9b3          	xor	s3,s3,s5
80004f34:	10f64e63          	blt	a2,a5,80005050 <__mulsf3+0x1c8>
80004f38:	fff78793          	addi	a5,a5,-1
80004f3c:	00100613          	li	a2,1
80004f40:	12f67a63          	bgeu	a2,a5,80005074 <__mulsf3+0x1ec>
80004f44:	00010837          	lui	a6,0x10
80004f48:	fff80513          	addi	a0,a6,-1 # ffff <__heap_size+0x2fff>
80004f4c:	0104d613          	srli	a2,s1,0x10
80004f50:	01045793          	srli	a5,s0,0x10
80004f54:	00a4f4b3          	and	s1,s1,a0
80004f58:	00a47433          	and	s0,s0,a0
80004f5c:	029405b3          	mul	a1,s0,s1
80004f60:	02860433          	mul	s0,a2,s0
80004f64:	02f60633          	mul	a2,a2,a5
80004f68:	029787b3          	mul	a5,a5,s1
80004f6c:	00878733          	add	a4,a5,s0
80004f70:	0105d793          	srli	a5,a1,0x10
80004f74:	00e787b3          	add	a5,a5,a4
80004f78:	0087f463          	bgeu	a5,s0,80004f80 <__mulsf3+0xf8>
80004f7c:	01060633          	add	a2,a2,a6
80004f80:	00a7f733          	and	a4,a5,a0
80004f84:	01071713          	slli	a4,a4,0x10
80004f88:	00a5f5b3          	and	a1,a1,a0
80004f8c:	00b70733          	add	a4,a4,a1
80004f90:	0107d793          	srli	a5,a5,0x10
80004f94:	00671413          	slli	s0,a4,0x6
80004f98:	00c787b3          	add	a5,a5,a2
80004f9c:	01a75713          	srli	a4,a4,0x1a
80004fa0:	00679793          	slli	a5,a5,0x6
80004fa4:	00803433          	snez	s0,s0
80004fa8:	00e46433          	or	s0,s0,a4
80004fac:	00479713          	slli	a4,a5,0x4
80004fb0:	0087e433          	or	s0,a5,s0
80004fb4:	00075a63          	bgez	a4,80004fc8 <__mulsf3+0x140>
80004fb8:	00145793          	srli	a5,s0,0x1
80004fbc:	00147413          	andi	s0,s0,1
80004fc0:	0087e433          	or	s0,a5,s0
80004fc4:	00068913          	mv	s2,a3
80004fc8:	00090693          	mv	a3,s2
80004fcc:	0c00006f          	j	8000508c <__mulsf3+0x204>
80004fd0:	02048a63          	beqz	s1,80005004 <__mulsf3+0x17c>
80004fd4:	00048513          	mv	a0,s1
80004fd8:	37c000ef          	jal	80005354 <__clzsi2>
80004fdc:	ffb50793          	addi	a5,a0,-5
80004fe0:	f8a00913          	li	s2,-118
80004fe4:	00f494b3          	sll	s1,s1,a5
80004fe8:	40a90933          	sub	s2,s2,a0
80004fec:	ef1ff06f          	j	80004edc <__mulsf3+0x54>
80004ff0:	0ff00913          	li	s2,255
80004ff4:	00200a13          	li	s4,2
80004ff8:	ee0484e3          	beqz	s1,80004ee0 <__mulsf3+0x58>
80004ffc:	00300a13          	li	s4,3
80005000:	ee1ff06f          	j	80004ee0 <__mulsf3+0x58>
80005004:	00000913          	li	s2,0
80005008:	00100a13          	li	s4,1
8000500c:	ed5ff06f          	j	80004ee0 <__mulsf3+0x58>
80005010:	02040a63          	beqz	s0,80005044 <__mulsf3+0x1bc>
80005014:	00040513          	mv	a0,s0
80005018:	33c000ef          	jal	80005354 <__clzsi2>
8000501c:	ffb50793          	addi	a5,a0,-5
80005020:	00f41433          	sll	s0,s0,a5
80005024:	f8a00793          	li	a5,-118
80005028:	40a787b3          	sub	a5,a5,a0
8000502c:	ee5ff06f          	j	80004f10 <__mulsf3+0x88>
80005030:	0ff00793          	li	a5,255
80005034:	00200713          	li	a4,2
80005038:	ec040ee3          	beqz	s0,80004f14 <__mulsf3+0x8c>
8000503c:	00300713          	li	a4,3
80005040:	ed5ff06f          	j	80004f14 <__mulsf3+0x8c>
80005044:	00000793          	li	a5,0
80005048:	00100713          	li	a4,1
8000504c:	ec9ff06f          	j	80004f14 <__mulsf3+0x8c>
80005050:	00100613          	li	a2,1
80005054:	00f617b3          	sll	a5,a2,a5
80005058:	5307f613          	andi	a2,a5,1328
8000505c:	0c061063          	bnez	a2,8000511c <__mulsf3+0x294>
80005060:	2407f613          	andi	a2,a5,576
80005064:	12061263          	bnez	a2,80005188 <__mulsf3+0x300>
80005068:	0887f793          	andi	a5,a5,136
8000506c:	ec078ce3          	beqz	a5,80004f44 <__mulsf3+0xbc>
80005070:	000a8993          	mv	s3,s5
80005074:	00200793          	li	a5,2
80005078:	10f70263          	beq	a4,a5,8000517c <__mulsf3+0x2f4>
8000507c:	00300793          	li	a5,3
80005080:	10f70463          	beq	a4,a5,80005188 <__mulsf3+0x300>
80005084:	00100793          	li	a5,1
80005088:	10f70863          	beq	a4,a5,80005198 <__mulsf3+0x310>
8000508c:	07f68713          	addi	a4,a3,127 # 7f80007f <__heap_size+0x7f7f307f>
80005090:	08e05c63          	blez	a4,80005128 <__mulsf3+0x2a0>
80005094:	00747793          	andi	a5,s0,7
80005098:	00078a63          	beqz	a5,800050ac <__mulsf3+0x224>
8000509c:	00f47793          	andi	a5,s0,15
800050a0:	00400613          	li	a2,4
800050a4:	00c78463          	beq	a5,a2,800050ac <__mulsf3+0x224>
800050a8:	00440413          	addi	s0,s0,4
800050ac:	00441793          	slli	a5,s0,0x4
800050b0:	0007da63          	bgez	a5,800050c4 <__mulsf3+0x23c>
800050b4:	f80007b7          	lui	a5,0xf8000
800050b8:	fff78793          	addi	a5,a5,-1 # f7ffffff <__stack_top+0x77fe9c2f>
800050bc:	00f47433          	and	s0,s0,a5
800050c0:	08068713          	addi	a4,a3,128
800050c4:	0fe00793          	li	a5,254
800050c8:	0ae7ca63          	blt	a5,a4,8000517c <__mulsf3+0x2f4>
800050cc:	00345793          	srli	a5,s0,0x3
800050d0:	01c12083          	lw	ra,28(sp)
800050d4:	01812403          	lw	s0,24(sp)
800050d8:	00979793          	slli	a5,a5,0x9
800050dc:	01771513          	slli	a0,a4,0x17
800050e0:	0097d793          	srli	a5,a5,0x9
800050e4:	01f99993          	slli	s3,s3,0x1f
800050e8:	00f56533          	or	a0,a0,a5
800050ec:	01412483          	lw	s1,20(sp)
800050f0:	01012903          	lw	s2,16(sp)
800050f4:	00812a03          	lw	s4,8(sp)
800050f8:	00412a83          	lw	s5,4(sp)
800050fc:	01356533          	or	a0,a0,s3
80005100:	00c12983          	lw	s3,12(sp)
80005104:	02010113          	addi	sp,sp,32
80005108:	00008067          	ret
8000510c:	00f00613          	li	a2,15
80005110:	06c78c63          	beq	a5,a2,80005188 <__mulsf3+0x300>
80005114:	00b00613          	li	a2,11
80005118:	f4c78ce3          	beq	a5,a2,80005070 <__mulsf3+0x1e8>
8000511c:	00048413          	mv	s0,s1
80005120:	000a0713          	mv	a4,s4
80005124:	f51ff06f          	j	80005074 <__mulsf3+0x1ec>
80005128:	00100793          	li	a5,1
8000512c:	40e787b3          	sub	a5,a5,a4
80005130:	01b00713          	li	a4,27
80005134:	06f74263          	blt	a4,a5,80005198 <__mulsf3+0x310>
80005138:	09e68693          	addi	a3,a3,158
8000513c:	00d416b3          	sll	a3,s0,a3
80005140:	00f457b3          	srl	a5,s0,a5
80005144:	00d036b3          	snez	a3,a3
80005148:	00d7e7b3          	or	a5,a5,a3
8000514c:	0077f713          	andi	a4,a5,7
80005150:	00070a63          	beqz	a4,80005164 <__mulsf3+0x2dc>
80005154:	00f7f713          	andi	a4,a5,15
80005158:	00400693          	li	a3,4
8000515c:	00d70463          	beq	a4,a3,80005164 <__mulsf3+0x2dc>
80005160:	00478793          	addi	a5,a5,4
80005164:	00579713          	slli	a4,a5,0x5
80005168:	0037d793          	srli	a5,a5,0x3
8000516c:	02075863          	bgez	a4,8000519c <__mulsf3+0x314>
80005170:	00000793          	li	a5,0
80005174:	00100713          	li	a4,1
80005178:	f59ff06f          	j	800050d0 <__mulsf3+0x248>
8000517c:	00000793          	li	a5,0
80005180:	0ff00713          	li	a4,255
80005184:	f4dff06f          	j	800050d0 <__mulsf3+0x248>
80005188:	004007b7          	lui	a5,0x400
8000518c:	0ff00713          	li	a4,255
80005190:	00000993          	li	s3,0
80005194:	f3dff06f          	j	800050d0 <__mulsf3+0x248>
80005198:	00000793          	li	a5,0
8000519c:	00000713          	li	a4,0
800051a0:	f31ff06f          	j	800050d0 <__mulsf3+0x248>

800051a4 <__fixsfsi>:
800051a4:	00800637          	lui	a2,0x800
800051a8:	01755713          	srli	a4,a0,0x17
800051ac:	fff60793          	addi	a5,a2,-1 # 7fffff <__heap_size+0x7f2fff>
800051b0:	0ff77713          	zext.b	a4,a4
800051b4:	07e00593          	li	a1,126
800051b8:	00a7f7b3          	and	a5,a5,a0
800051bc:	01f55693          	srli	a3,a0,0x1f
800051c0:	04e5d663          	bge	a1,a4,8000520c <__fixsfsi+0x68>
800051c4:	09d00593          	li	a1,157
800051c8:	00e5da63          	bge	a1,a4,800051dc <__fixsfsi+0x38>
800051cc:	80000537          	lui	a0,0x80000
800051d0:	fff50513          	addi	a0,a0,-1 # 7fffffff <__heap_size+0x7fff2fff>
800051d4:	00a68533          	add	a0,a3,a0
800051d8:	00008067          	ret
800051dc:	00c7e533          	or	a0,a5,a2
800051e0:	09500793          	li	a5,149
800051e4:	00e7dc63          	bge	a5,a4,800051fc <__fixsfsi+0x58>
800051e8:	f6a70713          	addi	a4,a4,-150 # 3ffff6a <__heap_size+0x3ff2f6a>
800051ec:	00e51533          	sll	a0,a0,a4
800051f0:	02068063          	beqz	a3,80005210 <__fixsfsi+0x6c>
800051f4:	40a00533          	neg	a0,a0
800051f8:	00008067          	ret
800051fc:	09600793          	li	a5,150
80005200:	40e787b3          	sub	a5,a5,a4
80005204:	00f55533          	srl	a0,a0,a5
80005208:	fe9ff06f          	j	800051f0 <__fixsfsi+0x4c>
8000520c:	00000513          	li	a0,0
80005210:	00008067          	ret

80005214 <__floatsisf>:
80005214:	ff010113          	addi	sp,sp,-16
80005218:	00112623          	sw	ra,12(sp)
8000521c:	00812423          	sw	s0,8(sp)
80005220:	00912223          	sw	s1,4(sp)
80005224:	00050793          	mv	a5,a0
80005228:	0e050063          	beqz	a0,80005308 <__floatsisf+0xf4>
8000522c:	41f55713          	srai	a4,a0,0x1f
80005230:	00a74433          	xor	s0,a4,a0
80005234:	40e40433          	sub	s0,s0,a4
80005238:	01f55493          	srli	s1,a0,0x1f
8000523c:	00040513          	mv	a0,s0
80005240:	114000ef          	jal	80005354 <__clzsi2>
80005244:	09e00793          	li	a5,158
80005248:	40a787b3          	sub	a5,a5,a0
8000524c:	09600713          	li	a4,150
80005250:	04f74063          	blt	a4,a5,80005290 <__floatsisf+0x7c>
80005254:	00800713          	li	a4,8
80005258:	0ae50e63          	beq	a0,a4,80005314 <__floatsisf+0x100>
8000525c:	ff850513          	addi	a0,a0,-8
80005260:	00a41433          	sll	s0,s0,a0
80005264:	00941413          	slli	s0,s0,0x9
80005268:	00945413          	srli	s0,s0,0x9
8000526c:	01779793          	slli	a5,a5,0x17
80005270:	00c12083          	lw	ra,12(sp)
80005274:	0087e7b3          	or	a5,a5,s0
80005278:	00812403          	lw	s0,8(sp)
8000527c:	01f49513          	slli	a0,s1,0x1f
80005280:	00a7e533          	or	a0,a5,a0
80005284:	00412483          	lw	s1,4(sp)
80005288:	01010113          	addi	sp,sp,16
8000528c:	00008067          	ret
80005290:	09900713          	li	a4,153
80005294:	06f75463          	bge	a4,a5,800052fc <__floatsisf+0xe8>
80005298:	00500713          	li	a4,5
8000529c:	40a70733          	sub	a4,a4,a0
800052a0:	01b50693          	addi	a3,a0,27
800052a4:	00e45733          	srl	a4,s0,a4
800052a8:	00d41433          	sll	s0,s0,a3
800052ac:	00803433          	snez	s0,s0
800052b0:	00876733          	or	a4,a4,s0
800052b4:	fc000437          	lui	s0,0xfc000
800052b8:	fff40413          	addi	s0,s0,-1 # fbffffff <__stack_top+0x7bfe9c2f>
800052bc:	00777693          	andi	a3,a4,7
800052c0:	00877433          	and	s0,a4,s0
800052c4:	00068a63          	beqz	a3,800052d8 <__floatsisf+0xc4>
800052c8:	00f77713          	andi	a4,a4,15
800052cc:	00400693          	li	a3,4
800052d0:	00d70463          	beq	a4,a3,800052d8 <__floatsisf+0xc4>
800052d4:	00440413          	addi	s0,s0,4
800052d8:	00541713          	slli	a4,s0,0x5
800052dc:	00075c63          	bgez	a4,800052f4 <__floatsisf+0xe0>
800052e0:	fc0007b7          	lui	a5,0xfc000
800052e4:	fff78793          	addi	a5,a5,-1 # fbffffff <__stack_top+0x7bfe9c2f>
800052e8:	00f47433          	and	s0,s0,a5
800052ec:	09f00793          	li	a5,159
800052f0:	40a787b3          	sub	a5,a5,a0
800052f4:	00345413          	srli	s0,s0,0x3
800052f8:	f6dff06f          	j	80005264 <__floatsisf+0x50>
800052fc:	ffb50713          	addi	a4,a0,-5
80005300:	00e41733          	sll	a4,s0,a4
80005304:	fb1ff06f          	j	800052b4 <__floatsisf+0xa0>
80005308:	00000493          	li	s1,0
8000530c:	00000413          	li	s0,0
80005310:	f55ff06f          	j	80005264 <__floatsisf+0x50>
80005314:	09600793          	li	a5,150
80005318:	f4dff06f          	j	80005264 <__floatsisf+0x50>

8000531c <__ashldi3>:
8000531c:	02060063          	beqz	a2,8000533c <__ashldi3+0x20>
80005320:	02000793          	li	a5,32
80005324:	40c787b3          	sub	a5,a5,a2
80005328:	00f04c63          	bgtz	a5,80005340 <__ashldi3+0x24>
8000532c:	fe060613          	addi	a2,a2,-32
80005330:	00c515b3          	sll	a1,a0,a2
80005334:	00000713          	li	a4,0
80005338:	00070513          	mv	a0,a4
8000533c:	00008067          	ret
80005340:	00c51733          	sll	a4,a0,a2
80005344:	00c595b3          	sll	a1,a1,a2
80005348:	00f55533          	srl	a0,a0,a5
8000534c:	00a5e5b3          	or	a1,a1,a0
80005350:	fe9ff06f          	j	80005338 <__ashldi3+0x1c>

80005354 <__clzsi2>:
80005354:	000107b7          	lui	a5,0x10
80005358:	02f57a63          	bgeu	a0,a5,8000538c <__clzsi2+0x38>
8000535c:	10053793          	sltiu	a5,a0,256
80005360:	0017b793          	seqz	a5,a5
80005364:	00379793          	slli	a5,a5,0x3
80005368:	80008737          	lui	a4,0x80008
8000536c:	02000693          	li	a3,32
80005370:	40f686b3          	sub	a3,a3,a5
80005374:	00f55533          	srl	a0,a0,a5
80005378:	27870793          	addi	a5,a4,632 # 80008278 <__clz_tab>
8000537c:	00a787b3          	add	a5,a5,a0
80005380:	0007c503          	lbu	a0,0(a5) # 10000 <__heap_size+0x3000>
80005384:	40a68533          	sub	a0,a3,a0
80005388:	00008067          	ret
8000538c:	01000737          	lui	a4,0x1000
80005390:	01800793          	li	a5,24
80005394:	fce57ae3          	bgeu	a0,a4,80005368 <__clzsi2+0x14>
80005398:	01000793          	li	a5,16
8000539c:	fcdff06f          	j	80005368 <__clzsi2+0x14>
