
coremark.elf:     file format elf32-littleriscv


Disassembly of section .text:

00001000 <iterate>:
    1000:	ff010113          	addi	sp,sp,-16
    1004:	01212023          	sw	s2,0(sp)
    1008:	01c52903          	lw	s2,28(a0)
    100c:	00112623          	sw	ra,12(sp)
    1010:	02052c23          	sw	zero,56(a0)
    1014:	02052e23          	sw	zero,60(a0)
    1018:	04090e63          	beqz	s2,1074 <iterate+0x74>
    101c:	00812423          	sw	s0,8(sp)
    1020:	00912223          	sw	s1,4(sp)
    1024:	00050413          	mv	s0,a0
    1028:	00000493          	li	s1,0
    102c:	00100593          	li	a1,1
    1030:	00040513          	mv	a0,s0
    1034:	691000ef          	jal	1ec4 <core_bench_list>
    1038:	03845583          	lhu	a1,56(s0)
    103c:	1c1000ef          	jal	19fc <crcu16>
    1040:	02a41c23          	sh	a0,56(s0)
    1044:	fff00593          	li	a1,-1
    1048:	00040513          	mv	a0,s0
    104c:	679000ef          	jal	1ec4 <core_bench_list>
    1050:	03845583          	lhu	a1,56(s0)
    1054:	1a9000ef          	jal	19fc <crcu16>
    1058:	02a41c23          	sh	a0,56(s0)
    105c:	00049463          	bnez	s1,1064 <iterate+0x64>
    1060:	02a41d23          	sh	a0,58(s0)
    1064:	00148493          	addi	s1,s1,1
    1068:	fc9912e3          	bne	s2,s1,102c <iterate+0x2c>
    106c:	00812403          	lw	s0,8(sp)
    1070:	00412483          	lw	s1,4(sp)
    1074:	00c12083          	lw	ra,12(sp)
    1078:	00012903          	lw	s2,0(sp)
    107c:	00000513          	li	a0,0
    1080:	01010113          	addi	sp,sp,16
    1084:	00008067          	ret

00001088 <main>:
    1088:	00008537          	lui	a0,0x8
    108c:	f7010113          	addi	sp,sp,-144
    1090:	00c50513          	addi	a0,a0,12 # 800c <mem_name+0xc>
    1094:	08112623          	sw	ra,140(sp)
    1098:	08812423          	sw	s0,136(sp)
    109c:	08912223          	sw	s1,132(sp)
    10a0:	09212023          	sw	s2,128(sp)
    10a4:	07312e23          	sw	s3,124(sp)
    10a8:	07412c23          	sw	s4,120(sp)
    10ac:	07512a23          	sw	s5,116(sp)
    10b0:	07612823          	sw	s6,112(sp)
    10b4:	07712623          	sw	s7,108(sp)
    10b8:	07812423          	sw	s8,104(sp)
    10bc:	00012223          	sw	zero,4(sp)
    10c0:	5d8020ef          	jal	3698 <printf>
    10c4:	00810613          	addi	a2,sp,8
    10c8:	00410593          	addi	a1,sp,4
    10cc:	04e10513          	addi	a0,sp,78
    10d0:	06d000ef          	jal	193c <portable_init>
    10d4:	00100513          	li	a0,1
    10d8:	079000ef          	jal	1950 <get_seed_32>
    10dc:	00050793          	mv	a5,a0
    10e0:	00200513          	li	a0,2
    10e4:	00f11623          	sh	a5,12(sp)
    10e8:	069000ef          	jal	1950 <get_seed_32>
    10ec:	00050793          	mv	a5,a0
    10f0:	00300513          	li	a0,3
    10f4:	00f11723          	sh	a5,14(sp)
    10f8:	059000ef          	jal	1950 <get_seed_32>
    10fc:	00050793          	mv	a5,a0
    1100:	00400513          	li	a0,4
    1104:	00f11823          	sh	a5,16(sp)
    1108:	049000ef          	jal	1950 <get_seed_32>
    110c:	00050793          	mv	a5,a0
    1110:	00500513          	li	a0,5
    1114:	02f12423          	sw	a5,40(sp)
    1118:	039000ef          	jal	1950 <get_seed_32>
    111c:	00c12783          	lw	a5,12(sp)
    1120:	00700713          	li	a4,7
    1124:	02e12623          	sw	a4,44(sp)
    1128:	22079a63          	bnez	a5,135c <main+0x2d4>
    112c:	01011783          	lh	a5,16(sp)
    1130:	24078463          	beqz	a5,1378 <main+0x2f0>
    1134:	00700513          	li	a0,7
    1138:	019000ef          	jal	1950 <get_seed_32>
    113c:	01051513          	slli	a0,a0,0x10
    1140:	41055513          	srai	a0,a0,0x10
    1144:	00051463          	bnez	a0,114c <main+0xc4>
    1148:	7d000513          	li	a0,2000
    114c:	02a12223          	sw	a0,36(sp)
    1150:	764000ef          	jal	18b4 <portable_malloc>
    1154:	02c12783          	lw	a5,44(sp)
    1158:	00a12a23          	sw	a0,20(sp)
    115c:	04011623          	sh	zero,76(sp)
    1160:	0027f613          	andi	a2,a5,2
    1164:	0017f713          	andi	a4,a5,1
    1168:	00c03633          	snez	a2,a2
    116c:	0047f593          	andi	a1,a5,4
    1170:	00050693          	mv	a3,a0
    1174:	00c70733          	add	a4,a4,a2
    1178:	00058863          	beqz	a1,1188 <main+0x100>
    117c:	00170713          	addi	a4,a4,1
    1180:	01071713          	slli	a4,a4,0x10
    1184:	01075713          	srli	a4,a4,0x10
    1188:	02412503          	lw	a0,36(sp)
    118c:	00c10593          	addi	a1,sp,12
    1190:	00000813          	li	a6,0
    1194:	02e55533          	divu	a0,a0,a4
    1198:	00100313          	li	t1,1
    119c:	00000713          	li	a4,0
    11a0:	00300893          	li	a7,3
    11a4:	02a12223          	sw	a0,36(sp)
    11a8:	00e31633          	sll	a2,t1,a4
    11ac:	00f67633          	and	a2,a2,a5
    11b0:	00170713          	addi	a4,a4,1
    11b4:	18061663          	bnez	a2,1340 <main+0x2b8>
    11b8:	00458593          	addi	a1,a1,4
    11bc:	ff1716e3          	bne	a4,a7,11a8 <main+0x120>
    11c0:	0017f713          	andi	a4,a5,1
    11c4:	00070c63          	beqz	a4,11dc <main+0x154>
    11c8:	00c11603          	lh	a2,12(sp)
    11cc:	01812583          	lw	a1,24(sp)
    11d0:	72d000ef          	jal	20fc <core_list_init>
    11d4:	02c12783          	lw	a5,44(sp)
    11d8:	02a12823          	sw	a0,48(sp)
    11dc:	0027f713          	andi	a4,a5,2
    11e0:	12071c63          	bnez	a4,1318 <main+0x290>
    11e4:	0047f793          	andi	a5,a5,4
    11e8:	00078a63          	beqz	a5,11fc <main+0x174>
    11ec:	02012603          	lw	a2,32(sp)
    11f0:	00c11583          	lh	a1,12(sp)
    11f4:	02412503          	lw	a0,36(sp)
    11f8:	6b0010ef          	jal	28a8 <core_init_state>
    11fc:	02812783          	lw	a5,40(sp)
    1200:	08079263          	bnez	a5,1284 <main+0x1fc>
    1204:	000097b7          	lui	a5,0x9
    1208:	8e07a903          	lw	s2,-1824(a5) # 88e0 <__clz_tab+0x100>
    120c:	8e47a983          	lw	s3,-1820(a5)
    1210:	00100793          	li	a5,1
    1214:	02f12423          	sw	a5,40(sp)
    1218:	02812703          	lw	a4,40(sp)
    121c:	00271793          	slli	a5,a4,0x2
    1220:	00e787b3          	add	a5,a5,a4
    1224:	00179793          	slli	a5,a5,0x1
    1228:	02f12423          	sw	a5,40(sp)
    122c:	690000ef          	jal	18bc <start_time>
    1230:	00c10513          	addi	a0,sp,12
    1234:	dcdff0ef          	jal	1000 <iterate>
    1238:	6a4000ef          	jal	18dc <stop_time>
    123c:	6c0000ef          	jal	18fc <get_time>
    1240:	6d4000ef          	jal	1914 <time_in_secs>
    1244:	00090613          	mv	a2,s2
    1248:	00098693          	mv	a3,s3
    124c:	00050493          	mv	s1,a0
    1250:	00058413          	mv	s0,a1
    1254:	058040ef          	jal	52ac <__ledf2>
    1258:	fc0540e3          	bltz	a0,1218 <main+0x190>
    125c:	00048513          	mv	a0,s1
    1260:	00040593          	mv	a1,s0
    1264:	6bd040ef          	jal	6120 <__fixunsdfsi>
    1268:	26050863          	beqz	a0,14d8 <main+0x450>
    126c:	00a00793          	li	a5,10
    1270:	02a7d7b3          	divu	a5,a5,a0
    1274:	02812703          	lw	a4,40(sp)
    1278:	00178793          	addi	a5,a5,1
    127c:	02f707b3          	mul	a5,a4,a5
    1280:	02f12423          	sw	a5,40(sp)
    1284:	00008537          	lui	a0,0x8
    1288:	02c50513          	addi	a0,a0,44 # 802c <mem_name+0x2c>
    128c:	40c020ef          	jal	3698 <printf>
    1290:	62c000ef          	jal	18bc <start_time>
    1294:	00c10513          	addi	a0,sp,12
    1298:	d69ff0ef          	jal	1000 <iterate>
    129c:	640000ef          	jal	18dc <stop_time>
    12a0:	65c000ef          	jal	18fc <get_time>
    12a4:	00050913          	mv	s2,a0
    12a8:	00c11503          	lh	a0,12(sp)
    12ac:	00000593          	li	a1,0
    12b0:	7b0000ef          	jal	1a60 <crc16>
    12b4:	00050593          	mv	a1,a0
    12b8:	00e11503          	lh	a0,14(sp)
    12bc:	7a4000ef          	jal	1a60 <crc16>
    12c0:	00050593          	mv	a1,a0
    12c4:	01011503          	lh	a0,16(sp)
    12c8:	798000ef          	jal	1a60 <crc16>
    12cc:	00050593          	mv	a1,a0
    12d0:	02411503          	lh	a0,36(sp)
    12d4:	78c000ef          	jal	1a60 <crc16>
    12d8:	000087b7          	lui	a5,0x8
    12dc:	b0578793          	addi	a5,a5,-1275 # 7b05 <__clzsi2+0x1809>
    12e0:	00050b93          	mv	s7,a0
    12e4:	5af50463          	beq	a0,a5,188c <main+0x804>
    12e8:	08a7fe63          	bgeu	a5,a0,1384 <main+0x2fc>
    12ec:	000097b7          	lui	a5,0x9
    12f0:	a0278793          	addi	a5,a5,-1534 # 8a02 <__heap_start+0xa2>
    12f4:	58f50263          	beq	a0,a5,1878 <main+0x7f0>
    12f8:	0000f7b7          	lui	a5,0xf
    12fc:	9f578793          	addi	a5,a5,-1547 # e9f5 <__stack_top+0x2095>
    1300:	1ef51063          	bne	a0,a5,14e0 <main+0x458>
    1304:	00008537          	lui	a0,0x8
    1308:	0e450513          	addi	a0,a0,228 # 80e4 <mem_name+0xe4>
    130c:	38c020ef          	jal	3698 <printf>
    1310:	00300a93          	li	s5,3
    1314:	0980006f          	j	13ac <main+0x324>
    1318:	00e11783          	lh	a5,14(sp)
    131c:	00c11603          	lh	a2,12(sp)
    1320:	01c12583          	lw	a1,28(sp)
    1324:	02412503          	lw	a0,36(sp)
    1328:	01079793          	slli	a5,a5,0x10
    132c:	00c7e633          	or	a2,a5,a2
    1330:	03410693          	addi	a3,sp,52
    1334:	78d000ef          	jal	22c0 <core_init_matrix>
    1338:	02c12783          	lw	a5,44(sp)
    133c:	ea9ff06f          	j	11e4 <main+0x15c>
    1340:	02a80633          	mul	a2,a6,a0
    1344:	00180813          	addi	a6,a6,1
    1348:	01081813          	slli	a6,a6,0x10
    134c:	01085813          	srli	a6,a6,0x10
    1350:	00c68633          	add	a2,a3,a2
    1354:	00c5a623          	sw	a2,12(a1)
    1358:	e61ff06f          	j	11b8 <main+0x130>
    135c:	00100713          	li	a4,1
    1360:	dce79ae3          	bne	a5,a4,1134 <main+0xac>
    1364:	01011783          	lh	a5,16(sp)
    1368:	dc0796e3          	bnez	a5,1134 <main+0xac>
    136c:	341537b7          	lui	a5,0x34153
    1370:	41578793          	addi	a5,a5,1045 # 34153415 <__stack_top+0x34146ab5>
    1374:	00f12623          	sw	a5,12(sp)
    1378:	06600793          	li	a5,102
    137c:	00f11823          	sh	a5,16(sp)
    1380:	db5ff06f          	j	1134 <main+0xac>
    1384:	000027b7          	lui	a5,0x2
    1388:	8f278793          	addi	a5,a5,-1806 # 18f2 <stop_time+0x16>
    138c:	4cf50c63          	beq	a0,a5,1864 <main+0x7dc>
    1390:	000057b7          	lui	a5,0x5
    1394:	eaf78793          	addi	a5,a5,-337 # 4eaf <__divdf3+0x3bb>
    1398:	14f51463          	bne	a0,a5,14e0 <main+0x458>
    139c:	00008537          	lui	a0,0x8
    13a0:	0b050513          	addi	a0,a0,176 # 80b0 <mem_name+0xb0>
    13a4:	2f4020ef          	jal	3698 <printf>
    13a8:	00200a93          	li	s5,2
    13ac:	00009c37          	lui	s8,0x9
    13b0:	908c2783          	lw	a5,-1784(s8) # 8908 <default_num_contexts>
    13b4:	4e078663          	beqz	a5,18a0 <main+0x818>
    13b8:	07a12023          	sw	s10,96(sp)
    13bc:	00008d37          	lui	s10,0x8
    13c0:	001a9793          	slli	a5,s5,0x1
    13c4:	5fcd0d13          	addi	s10,s10,1532 # 85fc <list_known_crc>
    13c8:	07912223          	sw	s9,100(sp)
    13cc:	05b12e23          	sw	s11,92(sp)
    13d0:	00000c93          	li	s9,0
    13d4:	00000d93          	li	s11,0
    13d8:	00fd0d33          	add	s10,s10,a5
    13dc:	00008b37          	lui	s6,0x8
    13e0:	00008a37          	lui	s4,0x8
    13e4:	000089b7          	lui	s3,0x8
    13e8:	0380006f          	j	1420 <main+0x398>
    13ec:	05040793          	addi	a5,s0,80
    13f0:	00278433          	add	s0,a5,sp
    13f4:	ffc45783          	lhu	a5,-4(s0)
    13f8:	001c8c93          	addi	s9,s9,1
    13fc:	908c2703          	lw	a4,-1784(s8)
    1400:	01b787b3          	add	a5,a5,s11
    1404:	010c9c93          	slli	s9,s9,0x10
    1408:	01079493          	slli	s1,a5,0x10
    140c:	01079d93          	slli	s11,a5,0x10
    1410:	010cdc93          	srli	s9,s9,0x10
    1414:	0104d493          	srli	s1,s1,0x10
    1418:	410ddd93          	srai	s11,s11,0x10
    141c:	3aecf263          	bgeu	s9,a4,17c0 <main+0x738>
    1420:	004c9413          	slli	s0,s9,0x4
    1424:	019404b3          	add	s1,s0,s9
    1428:	00249493          	slli	s1,s1,0x2
    142c:	05048793          	addi	a5,s1,80
    1430:	002784b3          	add	s1,a5,sp
    1434:	fdc4a783          	lw	a5,-36(s1)
    1438:	fe049e23          	sh	zero,-4(s1)
    143c:	0017f713          	andi	a4,a5,1
    1440:	02070663          	beqz	a4,146c <main+0x3e4>
    1444:	ff64d603          	lhu	a2,-10(s1)
    1448:	000d5683          	lhu	a3,0(s10)
    144c:	02d60063          	beq	a2,a3,146c <main+0x3e4>
    1450:	000c8593          	mv	a1,s9
    1454:	140b0513          	addi	a0,s6,320 # 8140 <mem_name+0x140>
    1458:	240020ef          	jal	3698 <printf>
    145c:	ffc4d703          	lhu	a4,-4(s1)
    1460:	fdc4a783          	lw	a5,-36(s1)
    1464:	00170713          	addi	a4,a4,1
    1468:	fee49e23          	sh	a4,-4(s1)
    146c:	0027f713          	andi	a4,a5,2
    1470:	02070e63          	beqz	a4,14ac <main+0x424>
    1474:	019404b3          	add	s1,s0,s9
    1478:	00249493          	slli	s1,s1,0x2
    147c:	05048713          	addi	a4,s1,80
    1480:	002704b3          	add	s1,a4,sp
    1484:	ff84d603          	lhu	a2,-8(s1)
    1488:	00cd5683          	lhu	a3,12(s10)
    148c:	02d60063          	beq	a2,a3,14ac <main+0x424>
    1490:	000c8593          	mv	a1,s9
    1494:	170a0513          	addi	a0,s4,368 # 8170 <mem_name+0x170>
    1498:	200020ef          	jal	3698 <printf>
    149c:	ffc4d703          	lhu	a4,-4(s1)
    14a0:	fdc4a783          	lw	a5,-36(s1)
    14a4:	00170713          	addi	a4,a4,1
    14a8:	fee49e23          	sh	a4,-4(s1)
    14ac:	01940433          	add	s0,s0,s9
    14b0:	0047f793          	andi	a5,a5,4
    14b4:	00241413          	slli	s0,s0,0x2
    14b8:	f2078ae3          	beqz	a5,13ec <main+0x364>
    14bc:	05040793          	addi	a5,s0,80
    14c0:	00278433          	add	s0,a5,sp
    14c4:	ffa45603          	lhu	a2,-6(s0)
    14c8:	018d5683          	lhu	a3,24(s10)
    14cc:	2cd61863          	bne	a2,a3,179c <main+0x714>
    14d0:	ffc45783          	lhu	a5,-4(s0)
    14d4:	f25ff06f          	j	13f8 <main+0x370>
    14d8:	00100513          	li	a0,1
    14dc:	d91ff06f          	j	126c <main+0x1e4>
    14e0:	00010437          	lui	s0,0x10
    14e4:	fff40493          	addi	s1,s0,-1 # ffff <__stack_top+0x369f>
    14e8:	fff00a93          	li	s5,-1
    14ec:	00009c37          	lui	s8,0x9
    14f0:	57c000ef          	jal	1a6c <check_data_types>
    14f4:	02412583          	lw	a1,36(sp)
    14f8:	009504b3          	add	s1,a0,s1
    14fc:	00008537          	lui	a0,0x8
    1500:	1d450513          	addi	a0,a0,468 # 81d4 <mem_name+0x1d4>
    1504:	194020ef          	jal	3698 <printf>
    1508:	00008537          	lui	a0,0x8
    150c:	00090593          	mv	a1,s2
    1510:	1ec50513          	addi	a0,a0,492 # 81ec <mem_name+0x1ec>
    1514:	184020ef          	jal	3698 <printf>
    1518:	00090513          	mv	a0,s2
    151c:	3f8000ef          	jal	1914 <time_in_secs>
    1520:	00050613          	mv	a2,a0
    1524:	00008537          	lui	a0,0x8
    1528:	00058693          	mv	a3,a1
    152c:	20450513          	addi	a0,a0,516 # 8204 <mem_name+0x204>
    1530:	168020ef          	jal	3698 <printf>
    1534:	00090513          	mv	a0,s2
    1538:	3dc000ef          	jal	1914 <time_in_secs>
    153c:	01049493          	slli	s1,s1,0x10
    1540:	00000613          	li	a2,0
    1544:	00000693          	li	a3,0
    1548:	4104d493          	srai	s1,s1,0x10
    154c:	485030ef          	jal	51d0 <__gedf2>
    1550:	04a05663          	blez	a0,159c <main+0x514>
    1554:	908c2783          	lw	a5,-1784(s8) # 8908 <default_num_contexts>
    1558:	02812503          	lw	a0,40(sp)
    155c:	02f50533          	mul	a0,a0,a5
    1560:	43d040ef          	jal	619c <__floatunsidf>
    1564:	00050993          	mv	s3,a0
    1568:	00090513          	mv	a0,s2
    156c:	00058413          	mv	s0,a1
    1570:	3a4000ef          	jal	1914 <time_in_secs>
    1574:	00050613          	mv	a2,a0
    1578:	00058693          	mv	a3,a1
    157c:	00098513          	mv	a0,s3
    1580:	00040593          	mv	a1,s0
    1584:	570030ef          	jal	4af4 <__divdf3>
    1588:	00050613          	mv	a2,a0
    158c:	00008537          	lui	a0,0x8
    1590:	00058693          	mv	a3,a1
    1594:	21c50513          	addi	a0,a0,540 # 821c <mem_name+0x21c>
    1598:	100020ef          	jal	3698 <printf>
    159c:	908c2783          	lw	a5,-1784(s8)
    15a0:	02812583          	lw	a1,40(sp)
    15a4:	00008537          	lui	a0,0x8
    15a8:	23450513          	addi	a0,a0,564 # 8234 <mem_name+0x234>
    15ac:	02f585b3          	mul	a1,a1,a5
    15b0:	000089b7          	lui	s3,0x8
    15b4:	00008a37          	lui	s4,0x8
    15b8:	00008b37          	lui	s6,0x8
    15bc:	0dc020ef          	jal	3698 <printf>
    15c0:	00008537          	lui	a0,0x8
    15c4:	24c98593          	addi	a1,s3,588 # 824c <mem_name+0x24c>
    15c8:	25850513          	addi	a0,a0,600 # 8258 <mem_name+0x258>
    15cc:	0cc020ef          	jal	3698 <printf>
    15d0:	00008537          	lui	a0,0x8
    15d4:	270a0593          	addi	a1,s4,624 # 8270 <mem_name+0x270>
    15d8:	30450513          	addi	a0,a0,772 # 8304 <mem_name+0x304>
    15dc:	0bc020ef          	jal	3698 <printf>
    15e0:	00008537          	lui	a0,0x8
    15e4:	31cb0593          	addi	a1,s6,796 # 831c <mem_name+0x31c>
    15e8:	32450513          	addi	a0,a0,804 # 8324 <mem_name+0x324>
    15ec:	0ac020ef          	jal	3698 <printf>
    15f0:	00008537          	lui	a0,0x8
    15f4:	000b8593          	mv	a1,s7
    15f8:	33c50513          	addi	a0,a0,828 # 833c <mem_name+0x33c>
    15fc:	09c020ef          	jal	3698 <printf>
    1600:	02c12783          	lw	a5,44(sp)
    1604:	0017f713          	andi	a4,a5,1
    1608:	04070863          	beqz	a4,1658 <main+0x5d0>
    160c:	908c2703          	lw	a4,-1784(s8)
    1610:	04070463          	beqz	a4,1658 <main+0x5d0>
    1614:	00000413          	li	s0,0
    1618:	00008bb7          	lui	s7,0x8
    161c:	00441793          	slli	a5,s0,0x4
    1620:	008787b3          	add	a5,a5,s0
    1624:	00279793          	slli	a5,a5,0x2
    1628:	05078793          	addi	a5,a5,80
    162c:	002787b3          	add	a5,a5,sp
    1630:	ff67d603          	lhu	a2,-10(a5)
    1634:	00040593          	mv	a1,s0
    1638:	358b8513          	addi	a0,s7,856 # 8358 <mem_name+0x358>
    163c:	05c020ef          	jal	3698 <printf>
    1640:	00140413          	addi	s0,s0,1
    1644:	908c2783          	lw	a5,-1784(s8)
    1648:	01041413          	slli	s0,s0,0x10
    164c:	01045413          	srli	s0,s0,0x10
    1650:	fcf466e3          	bltu	s0,a5,161c <main+0x594>
    1654:	02c12783          	lw	a5,44(sp)
    1658:	0027f713          	andi	a4,a5,2
    165c:	04070863          	beqz	a4,16ac <main+0x624>
    1660:	908c2703          	lw	a4,-1784(s8)
    1664:	24070263          	beqz	a4,18a8 <main+0x820>
    1668:	00000413          	li	s0,0
    166c:	00008bb7          	lui	s7,0x8
    1670:	00441793          	slli	a5,s0,0x4
    1674:	008787b3          	add	a5,a5,s0
    1678:	00279793          	slli	a5,a5,0x2
    167c:	05078793          	addi	a5,a5,80
    1680:	002787b3          	add	a5,a5,sp
    1684:	ff87d603          	lhu	a2,-8(a5)
    1688:	00040593          	mv	a1,s0
    168c:	374b8513          	addi	a0,s7,884 # 8374 <mem_name+0x374>
    1690:	008020ef          	jal	3698 <printf>
    1694:	00140413          	addi	s0,s0,1
    1698:	908c2783          	lw	a5,-1784(s8)
    169c:	01041413          	slli	s0,s0,0x10
    16a0:	01045413          	srli	s0,s0,0x10
    16a4:	fcf466e3          	bltu	s0,a5,1670 <main+0x5e8>
    16a8:	02c12783          	lw	a5,44(sp)
    16ac:	0047f793          	andi	a5,a5,4
    16b0:	908c2703          	lw	a4,-1784(s8)
    16b4:	04078463          	beqz	a5,16fc <main+0x674>
    16b8:	08070663          	beqz	a4,1744 <main+0x6bc>
    16bc:	00000413          	li	s0,0
    16c0:	00008bb7          	lui	s7,0x8
    16c4:	00441793          	slli	a5,s0,0x4
    16c8:	008787b3          	add	a5,a5,s0
    16cc:	00279793          	slli	a5,a5,0x2
    16d0:	05078793          	addi	a5,a5,80
    16d4:	002787b3          	add	a5,a5,sp
    16d8:	ffa7d603          	lhu	a2,-6(a5)
    16dc:	00040593          	mv	a1,s0
    16e0:	390b8513          	addi	a0,s7,912 # 8390 <mem_name+0x390>
    16e4:	7b5010ef          	jal	3698 <printf>
    16e8:	00140413          	addi	s0,s0,1
    16ec:	908c2783          	lw	a5,-1784(s8)
    16f0:	01041413          	slli	s0,s0,0x10
    16f4:	01045413          	srli	s0,s0,0x10
    16f8:	fcf466e3          	bltu	s0,a5,16c4 <main+0x63c>
    16fc:	908c2783          	lw	a5,-1784(s8)
    1700:	00000413          	li	s0,0
    1704:	00008bb7          	lui	s7,0x8
    1708:	02078e63          	beqz	a5,1744 <main+0x6bc>
    170c:	00441793          	slli	a5,s0,0x4
    1710:	008787b3          	add	a5,a5,s0
    1714:	00279793          	slli	a5,a5,0x2
    1718:	05078793          	addi	a5,a5,80
    171c:	002787b3          	add	a5,a5,sp
    1720:	ff47d603          	lhu	a2,-12(a5)
    1724:	00040593          	mv	a1,s0
    1728:	3acb8513          	addi	a0,s7,940 # 83ac <mem_name+0x3ac>
    172c:	76d010ef          	jal	3698 <printf>
    1730:	00140413          	addi	s0,s0,1
    1734:	908c2783          	lw	a5,-1784(s8)
    1738:	01041413          	slli	s0,s0,0x10
    173c:	01045413          	srli	s0,s0,0x10
    1740:	fcf466e3          	bltu	s0,a5,170c <main+0x684>
    1744:	08048e63          	beqz	s1,17e0 <main+0x758>
    1748:	08904463          	bgtz	s1,17d0 <main+0x748>
    174c:	00008537          	lui	a0,0x8
    1750:	43c50513          	addi	a0,a0,1084 # 843c <mem_name+0x43c>
    1754:	745010ef          	jal	3698 <printf>
    1758:	01412503          	lw	a0,20(sp)
    175c:	15c000ef          	jal	18b8 <portable_free>
    1760:	04e10513          	addi	a0,sp,78
    1764:	1e4000ef          	jal	1948 <portable_fini>
    1768:	08c12083          	lw	ra,140(sp)
    176c:	08812403          	lw	s0,136(sp)
    1770:	08412483          	lw	s1,132(sp)
    1774:	08012903          	lw	s2,128(sp)
    1778:	07c12983          	lw	s3,124(sp)
    177c:	07812a03          	lw	s4,120(sp)
    1780:	07412a83          	lw	s5,116(sp)
    1784:	07012b03          	lw	s6,112(sp)
    1788:	06c12b83          	lw	s7,108(sp)
    178c:	06812c03          	lw	s8,104(sp)
    1790:	00000513          	li	a0,0
    1794:	09010113          	addi	sp,sp,144
    1798:	00008067          	ret
    179c:	000c8593          	mv	a1,s9
    17a0:	1a498513          	addi	a0,s3,420
    17a4:	6f5010ef          	jal	3698 <printf>
    17a8:	ffc45783          	lhu	a5,-4(s0)
    17ac:	00178793          	addi	a5,a5,1
    17b0:	01079793          	slli	a5,a5,0x10
    17b4:	0107d793          	srli	a5,a5,0x10
    17b8:	fef41e23          	sh	a5,-4(s0)
    17bc:	c3dff06f          	j	13f8 <main+0x370>
    17c0:	06412c83          	lw	s9,100(sp)
    17c4:	06012d03          	lw	s10,96(sp)
    17c8:	05c12d83          	lw	s11,92(sp)
    17cc:	d25ff06f          	j	14f0 <main+0x468>
    17d0:	00008537          	lui	a0,0x8
    17d4:	4a050513          	addi	a0,a0,1184 # 84a0 <mem_name+0x4a0>
    17d8:	6c1010ef          	jal	3698 <printf>
    17dc:	f7dff06f          	j	1758 <main+0x6d0>
    17e0:	00008537          	lui	a0,0x8
    17e4:	3c850513          	addi	a0,a0,968 # 83c8 <mem_name+0x3c8>
    17e8:	6b1010ef          	jal	3698 <printf>
    17ec:	00300793          	li	a5,3
    17f0:	f6fa94e3          	bne	s5,a5,1758 <main+0x6d0>
    17f4:	908c2783          	lw	a5,-1784(s8)
    17f8:	02812503          	lw	a0,40(sp)
    17fc:	02f50533          	mul	a0,a0,a5
    1800:	19d040ef          	jal	619c <__floatunsidf>
    1804:	00050493          	mv	s1,a0
    1808:	00090513          	mv	a0,s2
    180c:	00058413          	mv	s0,a1
    1810:	104000ef          	jal	1914 <time_in_secs>
    1814:	00050613          	mv	a2,a0
    1818:	00058693          	mv	a3,a1
    181c:	00048513          	mv	a0,s1
    1820:	00040593          	mv	a1,s0
    1824:	2d0030ef          	jal	4af4 <__divdf3>
    1828:	00050613          	mv	a2,a0
    182c:	00008537          	lui	a0,0x8
    1830:	00058693          	mv	a3,a1
    1834:	270a0793          	addi	a5,s4,624
    1838:	24c98713          	addi	a4,s3,588
    183c:	41450513          	addi	a0,a0,1044 # 8414 <mem_name+0x414>
    1840:	659010ef          	jal	3698 <printf>
    1844:	00008537          	lui	a0,0x8
    1848:	31cb0593          	addi	a1,s6,796
    184c:	43050513          	addi	a0,a0,1072 # 8430 <mem_name+0x430>
    1850:	649010ef          	jal	3698 <printf>
    1854:	00008537          	lui	a0,0x8
    1858:	43850513          	addi	a0,a0,1080 # 8438 <mem_name+0x438>
    185c:	63d010ef          	jal	3698 <printf>
    1860:	ef9ff06f          	j	1758 <main+0x6d0>
    1864:	00008537          	lui	a0,0x8
    1868:	11450513          	addi	a0,a0,276 # 8114 <mem_name+0x114>
    186c:	62d010ef          	jal	3698 <printf>
    1870:	00400a93          	li	s5,4
    1874:	b39ff06f          	j	13ac <main+0x324>
    1878:	00008537          	lui	a0,0x8
    187c:	05450513          	addi	a0,a0,84 # 8054 <mem_name+0x54>
    1880:	619010ef          	jal	3698 <printf>
    1884:	00000a93          	li	s5,0
    1888:	b25ff06f          	j	13ac <main+0x324>
    188c:	00008537          	lui	a0,0x8
    1890:	08450513          	addi	a0,a0,132 # 8084 <mem_name+0x84>
    1894:	605010ef          	jal	3698 <printf>
    1898:	00100a93          	li	s5,1
    189c:	b11ff06f          	j	13ac <main+0x324>
    18a0:	00000493          	li	s1,0
    18a4:	c4dff06f          	j	14f0 <main+0x468>
    18a8:	0047f793          	andi	a5,a5,4
    18ac:	e40788e3          	beqz	a5,16fc <main+0x674>
    18b0:	e95ff06f          	j	1744 <main+0x6bc>

000018b4 <portable_malloc>:
    18b4:	0740206f          	j	3928 <malloc>

000018b8 <portable_free>:
    18b8:	1980206f          	j	3a50 <free>

000018bc <start_time>:
    18bc:	ff010113          	addi	sp,sp,-16
    18c0:	00112623          	sw	ra,12(sp)
    18c4:	548020ef          	jal	3e0c <clock>
    18c8:	00c12083          	lw	ra,12(sp)
    18cc:	000097b7          	lui	a5,0x9
    18d0:	94a7a223          	sw	a0,-1724(a5) # 8944 <start_time_val>
    18d4:	01010113          	addi	sp,sp,16
    18d8:	00008067          	ret

000018dc <stop_time>:
    18dc:	ff010113          	addi	sp,sp,-16
    18e0:	00112623          	sw	ra,12(sp)
    18e4:	528020ef          	jal	3e0c <clock>
    18e8:	00c12083          	lw	ra,12(sp)
    18ec:	000097b7          	lui	a5,0x9
    18f0:	94a7a023          	sw	a0,-1728(a5) # 8940 <stop_time_val>
    18f4:	01010113          	addi	sp,sp,16
    18f8:	00008067          	ret

000018fc <get_time>:
    18fc:	000097b7          	lui	a5,0x9
    1900:	9407a503          	lw	a0,-1728(a5) # 8940 <stop_time_val>
    1904:	000097b7          	lui	a5,0x9
    1908:	9447a783          	lw	a5,-1724(a5) # 8944 <start_time_val>
    190c:	40f50533          	sub	a0,a0,a5
    1910:	00008067          	ret

00001914 <time_in_secs>:
    1914:	ff010113          	addi	sp,sp,-16
    1918:	00112623          	sw	ra,12(sp)
    191c:	081040ef          	jal	619c <__floatunsidf>
    1920:	000097b7          	lui	a5,0x9
    1924:	8e87a603          	lw	a2,-1816(a5) # 88e8 <__clz_tab+0x108>
    1928:	8ec7a683          	lw	a3,-1812(a5)
    192c:	1c8030ef          	jal	4af4 <__divdf3>
    1930:	00c12083          	lw	ra,12(sp)
    1934:	01010113          	addi	sp,sp,16
    1938:	00008067          	ret

0000193c <portable_init>:
    193c:	00100793          	li	a5,1
    1940:	00f50023          	sb	a5,0(a0)
    1944:	00008067          	ret

00001948 <portable_fini>:
    1948:	00050023          	sb	zero,0(a0)
    194c:	00008067          	ret

00001950 <get_seed_32>:
    1950:	00500793          	li	a5,5
    1954:	04a7ec63          	bltu	a5,a0,19ac <get_seed_32+0x5c>
    1958:	000087b7          	lui	a5,0x8
    195c:	62078793          	addi	a5,a5,1568 # 8620 <state_known_crc+0xc>
    1960:	00251513          	slli	a0,a0,0x2
    1964:	00f50533          	add	a0,a0,a5
    1968:	00052783          	lw	a5,0(a0)
    196c:	00078067          	jr	a5
    1970:	000097b7          	lui	a5,0x9
    1974:	9487a503          	lw	a0,-1720(a5) # 8948 <seed5_volatile>
    1978:	00008067          	ret
    197c:	000097b7          	lui	a5,0x9
    1980:	9507a503          	lw	a0,-1712(a5) # 8950 <seed1_volatile>
    1984:	00008067          	ret
    1988:	000097b7          	lui	a5,0x9
    198c:	94c7a503          	lw	a0,-1716(a5) # 894c <seed2_volatile>
    1990:	00008067          	ret
    1994:	000097b7          	lui	a5,0x9
    1998:	9107a503          	lw	a0,-1776(a5) # 8910 <seed3_volatile>
    199c:	00008067          	ret
    19a0:	000097b7          	lui	a5,0x9
    19a4:	90c7a503          	lw	a0,-1780(a5) # 890c <seed4_volatile>
    19a8:	00008067          	ret
    19ac:	00000513          	li	a0,0
    19b0:	00008067          	ret

000019b4 <crcu8>:
    19b4:	ffffa637          	lui	a2,0xffffa
    19b8:	00050693          	mv	a3,a0
    19bc:	00800713          	li	a4,8
    19c0:	00058513          	mv	a0,a1
    19c4:	00160613          	addi	a2,a2,1 # ffffa001 <__stack_top+0xfffed6a1>
    19c8:	00a6c7b3          	xor	a5,a3,a0
    19cc:	0017f793          	andi	a5,a5,1
    19d0:	40f007b3          	neg	a5,a5
    19d4:	00155513          	srli	a0,a0,0x1
    19d8:	00c7f7b3          	and	a5,a5,a2
    19dc:	fff70713          	addi	a4,a4,-1
    19e0:	00a7c7b3          	xor	a5,a5,a0
    19e4:	01079513          	slli	a0,a5,0x10
    19e8:	0ff77713          	zext.b	a4,a4
    19ec:	0016d693          	srli	a3,a3,0x1
    19f0:	01055513          	srli	a0,a0,0x10
    19f4:	fc071ae3          	bnez	a4,19c8 <crcu8+0x14>
    19f8:	00008067          	ret

000019fc <crcu16>:
    19fc:	ff010113          	addi	sp,sp,-16
    1a00:	00812423          	sw	s0,8(sp)
    1a04:	00050413          	mv	s0,a0
    1a08:	0ff57513          	zext.b	a0,a0
    1a0c:	00112623          	sw	ra,12(sp)
    1a10:	fa5ff0ef          	jal	19b4 <crcu8>
    1a14:	00050593          	mv	a1,a0
    1a18:	00845513          	srli	a0,s0,0x8
    1a1c:	00812403          	lw	s0,8(sp)
    1a20:	00c12083          	lw	ra,12(sp)
    1a24:	01010113          	addi	sp,sp,16
    1a28:	f8dff06f          	j	19b4 <crcu8>

00001a2c <crcu32>:
    1a2c:	ff010113          	addi	sp,sp,-16
    1a30:	00812423          	sw	s0,8(sp)
    1a34:	00050413          	mv	s0,a0
    1a38:	01051513          	slli	a0,a0,0x10
    1a3c:	01055513          	srli	a0,a0,0x10
    1a40:	00112623          	sw	ra,12(sp)
    1a44:	fb9ff0ef          	jal	19fc <crcu16>
    1a48:	00050593          	mv	a1,a0
    1a4c:	01045513          	srli	a0,s0,0x10
    1a50:	00812403          	lw	s0,8(sp)
    1a54:	00c12083          	lw	ra,12(sp)
    1a58:	01010113          	addi	sp,sp,16
    1a5c:	fa1ff06f          	j	19fc <crcu16>

00001a60 <crc16>:
    1a60:	01051513          	slli	a0,a0,0x10
    1a64:	01055513          	srli	a0,a0,0x10
    1a68:	f95ff06f          	j	19fc <crcu16>

00001a6c <check_data_types>:
    1a6c:	00000513          	li	a0,0
    1a70:	00008067          	ret

00001a74 <cmp_idx>:
    1a74:	00060a63          	beqz	a2,1a88 <cmp_idx+0x14>
    1a78:	00251503          	lh	a0,2(a0)
    1a7c:	00259783          	lh	a5,2(a1)
    1a80:	40f50533          	sub	a0,a0,a5
    1a84:	00008067          	ret
    1a88:	00051783          	lh	a5,0(a0)
    1a8c:	01079713          	slli	a4,a5,0x10
    1a90:	01075713          	srli	a4,a4,0x10
    1a94:	00875713          	srli	a4,a4,0x8
    1a98:	f007f793          	andi	a5,a5,-256
    1a9c:	00e7e7b3          	or	a5,a5,a4
    1aa0:	00f51023          	sh	a5,0(a0)
    1aa4:	00059783          	lh	a5,0(a1)
    1aa8:	00251503          	lh	a0,2(a0)
    1aac:	01079713          	slli	a4,a5,0x10
    1ab0:	01075713          	srli	a4,a4,0x10
    1ab4:	00875713          	srli	a4,a4,0x8
    1ab8:	f007f793          	andi	a5,a5,-256
    1abc:	00e7e7b3          	or	a5,a5,a4
    1ac0:	00f59023          	sh	a5,0(a1)
    1ac4:	00259783          	lh	a5,2(a1)
    1ac8:	40f50533          	sub	a0,a0,a5
    1acc:	00008067          	ret

00001ad0 <calc_func>:
    1ad0:	fe010113          	addi	sp,sp,-32
    1ad4:	00812c23          	sw	s0,24(sp)
    1ad8:	00051403          	lh	s0,0(a0)
    1adc:	00112e23          	sw	ra,28(sp)
    1ae0:	40745793          	srai	a5,s0,0x7
    1ae4:	0017f793          	andi	a5,a5,1
    1ae8:	00078c63          	beqz	a5,1b00 <calc_func+0x30>
    1aec:	01c12083          	lw	ra,28(sp)
    1af0:	07f47513          	andi	a0,s0,127
    1af4:	01812403          	lw	s0,24(sp)
    1af8:	02010113          	addi	sp,sp,32
    1afc:	00008067          	ret
    1b00:	40345713          	srai	a4,s0,0x3
    1b04:	00f77713          	andi	a4,a4,15
    1b08:	00471693          	slli	a3,a4,0x4
    1b0c:	0385d783          	lhu	a5,56(a1)
    1b10:	00912a23          	sw	s1,20(sp)
    1b14:	01312623          	sw	s3,12(sp)
    1b18:	00058493          	mv	s1,a1
    1b1c:	01212823          	sw	s2,16(sp)
    1b20:	00d705b3          	add	a1,a4,a3
    1b24:	00747613          	andi	a2,s0,7
    1b28:	00050993          	mv	s3,a0
    1b2c:	00058713          	mv	a4,a1
    1b30:	08060063          	beqz	a2,1bb0 <calc_func+0xe0>
    1b34:	00100693          	li	a3,1
    1b38:	06d61463          	bne	a2,a3,1ba0 <calc_func+0xd0>
    1b3c:	00078613          	mv	a2,a5
    1b40:	02848513          	addi	a0,s1,40
    1b44:	529000ef          	jal	286c <core_bench_matrix>
    1b48:	03c4d783          	lhu	a5,60(s1)
    1b4c:	01051913          	slli	s2,a0,0x10
    1b50:	41095913          	srai	s2,s2,0x10
    1b54:	08079c63          	bnez	a5,1bec <calc_func+0x11c>
    1b58:	0384d783          	lhu	a5,56(s1)
    1b5c:	02a49e23          	sh	a0,60(s1)
    1b60:	00078593          	mv	a1,a5
    1b64:	e99ff0ef          	jal	19fc <crcu16>
    1b68:	00050793          	mv	a5,a0
    1b6c:	f0047413          	andi	s0,s0,-256
    1b70:	07f97513          	andi	a0,s2,127
    1b74:	00856433          	or	s0,a0,s0
    1b78:	02f49c23          	sh	a5,56(s1)
    1b7c:	08046413          	ori	s0,s0,128
    1b80:	00899023          	sh	s0,0(s3)
    1b84:	01c12083          	lw	ra,28(sp)
    1b88:	01812403          	lw	s0,24(sp)
    1b8c:	01412483          	lw	s1,20(sp)
    1b90:	01012903          	lw	s2,16(sp)
    1b94:	00c12983          	lw	s3,12(sp)
    1b98:	02010113          	addi	sp,sp,32
    1b9c:	00008067          	ret
    1ba0:	01041513          	slli	a0,s0,0x10
    1ba4:	01055513          	srli	a0,a0,0x10
    1ba8:	00040913          	mv	s2,s0
    1bac:	fb5ff06f          	j	1b60 <calc_func+0x90>
    1bb0:	02100693          	li	a3,33
    1bb4:	00b6e463          	bltu	a3,a1,1bbc <calc_func+0xec>
    1bb8:	02200713          	li	a4,34
    1bbc:	00249683          	lh	a3,2(s1)
    1bc0:	00049603          	lh	a2,0(s1)
    1bc4:	0144a583          	lw	a1,20(s1)
    1bc8:	0184a503          	lw	a0,24(s1)
    1bcc:	114010ef          	jal	2ce0 <core_bench_state>
    1bd0:	03e4d783          	lhu	a5,62(s1)
    1bd4:	01051913          	slli	s2,a0,0x10
    1bd8:	41095913          	srai	s2,s2,0x10
    1bdc:	00079863          	bnez	a5,1bec <calc_func+0x11c>
    1be0:	0384d783          	lhu	a5,56(s1)
    1be4:	02a49f23          	sh	a0,62(s1)
    1be8:	f79ff06f          	j	1b60 <calc_func+0x90>
    1bec:	0384d783          	lhu	a5,56(s1)
    1bf0:	f71ff06f          	j	1b60 <calc_func+0x90>

00001bf4 <cmp_complex>:
    1bf4:	ff010113          	addi	sp,sp,-16
    1bf8:	00912223          	sw	s1,4(sp)
    1bfc:	00058493          	mv	s1,a1
    1c00:	00060593          	mv	a1,a2
    1c04:	00112623          	sw	ra,12(sp)
    1c08:	00812423          	sw	s0,8(sp)
    1c0c:	00060413          	mv	s0,a2
    1c10:	ec1ff0ef          	jal	1ad0 <calc_func>
    1c14:	00050793          	mv	a5,a0
    1c18:	00040593          	mv	a1,s0
    1c1c:	00048513          	mv	a0,s1
    1c20:	00078413          	mv	s0,a5
    1c24:	eadff0ef          	jal	1ad0 <calc_func>
    1c28:	00c12083          	lw	ra,12(sp)
    1c2c:	40a40533          	sub	a0,s0,a0
    1c30:	00812403          	lw	s0,8(sp)
    1c34:	00412483          	lw	s1,4(sp)
    1c38:	01010113          	addi	sp,sp,16
    1c3c:	00008067          	ret

00001c40 <copy_info>:
    1c40:	00059703          	lh	a4,0(a1)
    1c44:	00259783          	lh	a5,2(a1)
    1c48:	00e51023          	sh	a4,0(a0)
    1c4c:	00f51123          	sh	a5,2(a0)
    1c50:	00008067          	ret

00001c54 <core_list_insert_new>:
    1c54:	00062803          	lw	a6,0(a2)
    1c58:	00880893          	addi	a7,a6,8
    1c5c:	04e8f663          	bgeu	a7,a4,1ca8 <core_list_insert_new+0x54>
    1c60:	0006a703          	lw	a4,0(a3)
    1c64:	00470313          	addi	t1,a4,4
    1c68:	04f37063          	bgeu	t1,a5,1ca8 <core_list_insert_new+0x54>
    1c6c:	01162023          	sw	a7,0(a2)
    1c70:	00052783          	lw	a5,0(a0)
    1c74:	00059883          	lh	a7,0(a1)
    1c78:	00259603          	lh	a2,2(a1)
    1c7c:	00f82023          	sw	a5,0(a6)
    1c80:	01052023          	sw	a6,0(a0)
    1c84:	00e82223          	sw	a4,4(a6)
    1c88:	0006a783          	lw	a5,0(a3)
    1c8c:	00080513          	mv	a0,a6
    1c90:	00478793          	addi	a5,a5,4
    1c94:	00f6a023          	sw	a5,0(a3)
    1c98:	00482783          	lw	a5,4(a6)
    1c9c:	01179023          	sh	a7,0(a5)
    1ca0:	00c79123          	sh	a2,2(a5)
    1ca4:	00008067          	ret
    1ca8:	00000813          	li	a6,0
    1cac:	00080513          	mv	a0,a6
    1cb0:	00008067          	ret

00001cb4 <core_list_remove>:
    1cb4:	00050793          	mv	a5,a0
    1cb8:	00052503          	lw	a0,0(a0)
    1cbc:	0047a683          	lw	a3,4(a5)
    1cc0:	00452603          	lw	a2,4(a0)
    1cc4:	00052703          	lw	a4,0(a0)
    1cc8:	00c7a223          	sw	a2,4(a5)
    1ccc:	00d52223          	sw	a3,4(a0)
    1cd0:	00e7a023          	sw	a4,0(a5)
    1cd4:	00052023          	sw	zero,0(a0)
    1cd8:	00008067          	ret

00001cdc <core_list_undo_remove>:
    1cdc:	0045a603          	lw	a2,4(a1)
    1ce0:	00452683          	lw	a3,4(a0)
    1ce4:	0005a703          	lw	a4,0(a1)
    1ce8:	00c52223          	sw	a2,4(a0)
    1cec:	00d5a223          	sw	a3,4(a1)
    1cf0:	00e52023          	sw	a4,0(a0)
    1cf4:	00a5a023          	sw	a0,0(a1)
    1cf8:	00008067          	ret

00001cfc <core_list_find>:
    1cfc:	00259703          	lh	a4,2(a1)
    1d00:	02074263          	bltz	a4,1d24 <core_list_find+0x28>
    1d04:	00051863          	bnez	a0,1d14 <core_list_find+0x18>
    1d08:	00008067          	ret
    1d0c:	00052503          	lw	a0,0(a0)
    1d10:	02050c63          	beqz	a0,1d48 <core_list_find+0x4c>
    1d14:	00452783          	lw	a5,4(a0)
    1d18:	00279783          	lh	a5,2(a5)
    1d1c:	fee798e3          	bne	a5,a4,1d0c <core_list_find+0x10>
    1d20:	00008067          	ret
    1d24:	02050263          	beqz	a0,1d48 <core_list_find+0x4c>
    1d28:	00059703          	lh	a4,0(a1)
    1d2c:	00c0006f          	j	1d38 <core_list_find+0x3c>
    1d30:	00052503          	lw	a0,0(a0)
    1d34:	00050c63          	beqz	a0,1d4c <core_list_find+0x50>
    1d38:	00452783          	lw	a5,4(a0)
    1d3c:	0007c783          	lbu	a5,0(a5)
    1d40:	fef718e3          	bne	a4,a5,1d30 <core_list_find+0x34>
    1d44:	00008067          	ret
    1d48:	00000513          	li	a0,0
    1d4c:	00008067          	ret

00001d50 <core_list_reverse>:
    1d50:	02050063          	beqz	a0,1d70 <core_list_reverse+0x20>
    1d54:	00000713          	li	a4,0
    1d58:	0080006f          	j	1d60 <core_list_reverse+0x10>
    1d5c:	00078513          	mv	a0,a5
    1d60:	00052783          	lw	a5,0(a0)
    1d64:	00e52023          	sw	a4,0(a0)
    1d68:	00050713          	mv	a4,a0
    1d6c:	fe0798e3          	bnez	a5,1d5c <core_list_reverse+0xc>
    1d70:	00008067          	ret

00001d74 <core_list_mergesort>:
    1d74:	fd010113          	addi	sp,sp,-48
    1d78:	01312e23          	sw	s3,28(sp)
    1d7c:	01512a23          	sw	s5,20(sp)
    1d80:	01712623          	sw	s7,12(sp)
    1d84:	01812423          	sw	s8,8(sp)
    1d88:	01a12023          	sw	s10,0(sp)
    1d8c:	02112623          	sw	ra,44(sp)
    1d90:	02812423          	sw	s0,40(sp)
    1d94:	02912223          	sw	s1,36(sp)
    1d98:	03212023          	sw	s2,32(sp)
    1d9c:	01412c23          	sw	s4,24(sp)
    1da0:	01612823          	sw	s6,16(sp)
    1da4:	01912223          	sw	s9,4(sp)
    1da8:	00050993          	mv	s3,a0
    1dac:	00058c13          	mv	s8,a1
    1db0:	00060b93          	mv	s7,a2
    1db4:	00100a93          	li	s5,1
    1db8:	00100d13          	li	s10,1
    1dbc:	0c098263          	beqz	s3,1e80 <core_list_mergesort+0x10c>
    1dc0:	00000c93          	li	s9,0
    1dc4:	00000493          	li	s1,0
    1dc8:	00000b13          	li	s6,0
    1dcc:	001c8c93          	addi	s9,s9,1
    1dd0:	00098793          	mv	a5,s3
    1dd4:	00000413          	li	s0,0
    1dd8:	01545863          	bge	s0,s5,1de8 <core_list_mergesort+0x74>
    1ddc:	0007a783          	lw	a5,0(a5)
    1de0:	00140413          	addi	s0,s0,1
    1de4:	fe079ae3          	bnez	a5,1dd8 <core_list_mergesort+0x64>
    1de8:	00098913          	mv	s2,s3
    1dec:	000a8a13          	mv	s4,s5
    1df0:	00078993          	mv	s3,a5
    1df4:	02805263          	blez	s0,1e18 <core_list_mergesort+0xa4>
    1df8:	040a1463          	bnez	s4,1e40 <core_list_mergesort+0xcc>
    1dfc:	00090793          	mv	a5,s2
    1e00:	00092903          	lw	s2,0(s2)
    1e04:	fff40413          	addi	s0,s0,-1
    1e08:	02048663          	beqz	s1,1e34 <core_list_mergesort+0xc0>
    1e0c:	00f4a023          	sw	a5,0(s1)
    1e10:	00078493          	mv	s1,a5
    1e14:	fe8042e3          	bgtz	s0,1df8 <core_list_mergesort+0x84>
    1e18:	05405863          	blez	s4,1e68 <core_list_mergesort+0xf4>
    1e1c:	04098863          	beqz	s3,1e6c <core_list_mergesort+0xf8>
    1e20:	02041263          	bnez	s0,1e44 <core_list_mergesort+0xd0>
    1e24:	00098793          	mv	a5,s3
    1e28:	fffa0a13          	addi	s4,s4,-1
    1e2c:	0009a983          	lw	s3,0(s3)
    1e30:	fc049ee3          	bnez	s1,1e0c <core_list_mergesort+0x98>
    1e34:	00078b13          	mv	s6,a5
    1e38:	00078493          	mv	s1,a5
    1e3c:	fd9ff06f          	j	1e14 <core_list_mergesort+0xa0>
    1e40:	fa098ee3          	beqz	s3,1dfc <core_list_mergesort+0x88>
    1e44:	0049a583          	lw	a1,4(s3)
    1e48:	00492503          	lw	a0,4(s2)
    1e4c:	000b8613          	mv	a2,s7
    1e50:	000c00e7          	jalr	s8
    1e54:	faa054e3          	blez	a0,1dfc <core_list_mergesort+0x88>
    1e58:	00098793          	mv	a5,s3
    1e5c:	fffa0a13          	addi	s4,s4,-1
    1e60:	0009a983          	lw	s3,0(s3)
    1e64:	fa5ff06f          	j	1e08 <core_list_mergesort+0x94>
    1e68:	f60992e3          	bnez	s3,1dcc <core_list_mergesort+0x58>
    1e6c:	0004a023          	sw	zero,0(s1)
    1e70:	01ac8c63          	beq	s9,s10,1e88 <core_list_mergesort+0x114>
    1e74:	000b0993          	mv	s3,s6
    1e78:	001a9a93          	slli	s5,s5,0x1
    1e7c:	f40992e3          	bnez	s3,1dc0 <core_list_mergesort+0x4c>
    1e80:	00002023          	sw	zero,0(zero) # 0 <iterate-0x1000>
    1e84:	00100073          	ebreak
    1e88:	02c12083          	lw	ra,44(sp)
    1e8c:	02812403          	lw	s0,40(sp)
    1e90:	02412483          	lw	s1,36(sp)
    1e94:	02012903          	lw	s2,32(sp)
    1e98:	01c12983          	lw	s3,28(sp)
    1e9c:	01812a03          	lw	s4,24(sp)
    1ea0:	01412a83          	lw	s5,20(sp)
    1ea4:	00c12b83          	lw	s7,12(sp)
    1ea8:	00812c03          	lw	s8,8(sp)
    1eac:	00412c83          	lw	s9,4(sp)
    1eb0:	00012d03          	lw	s10,0(sp)
    1eb4:	000b0513          	mv	a0,s6
    1eb8:	01012b03          	lw	s6,16(sp)
    1ebc:	03010113          	addi	sp,sp,48
    1ec0:	00008067          	ret

00001ec4 <core_bench_list>:
    1ec4:	fc010113          	addi	sp,sp,-64
    1ec8:	01912a23          	sw	s9,20(sp)
    1ecc:	00451c83          	lh	s9,4(a0)
    1ed0:	02912a23          	sw	s1,52(sp)
    1ed4:	03612023          	sw	s6,32(sp)
    1ed8:	01712e23          	sw	s7,28(sp)
    1edc:	02112e23          	sw	ra,60(sp)
    1ee0:	02812c23          	sw	s0,56(sp)
    1ee4:	03212823          	sw	s2,48(sp)
    1ee8:	03312623          	sw	s3,44(sp)
    1eec:	03512223          	sw	s5,36(sp)
    1ef0:	00011623          	sh	zero,12(sp)
    1ef4:	00b11723          	sh	a1,14(sp)
    1ef8:	02452483          	lw	s1,36(a0)
    1efc:	00050b93          	mv	s7,a0
    1f00:	00058b13          	mv	s6,a1
    1f04:	1f905663          	blez	s9,20f0 <__heap_size+0xf0>
    1f08:	03412423          	sw	s4,40(sp)
    1f0c:	01812c23          	sw	s8,24(sp)
    1f10:	01a12823          	sw	s10,16(sp)
    1f14:	00000913          	li	s2,0
    1f18:	00058d13          	mv	s10,a1
    1f1c:	00000c13          	li	s8,0
    1f20:	00000a13          	li	s4,0
    1f24:	00000413          	li	s0,0
    1f28:	00c10a93          	addi	s5,sp,12
    1f2c:	0ff97793          	zext.b	a5,s2
    1f30:	000a8593          	mv	a1,s5
    1f34:	00048513          	mv	a0,s1
    1f38:	00f11623          	sh	a5,12(sp)
    1f3c:	dc1ff0ef          	jal	1cfc <core_list_find>
    1f40:	00050993          	mv	s3,a0
    1f44:	00048513          	mv	a0,s1
    1f48:	e09ff0ef          	jal	1d50 <core_list_reverse>
    1f4c:	00050493          	mv	s1,a0
    1f50:	06098a63          	beqz	s3,1fc4 <core_bench_list+0x100>
    1f54:	0049a783          	lw	a5,4(s3)
    1f58:	00079783          	lh	a5,0(a5)
    1f5c:	0017f713          	andi	a4,a5,1
    1f60:	00070c63          	beqz	a4,1f78 <core_bench_list+0xb4>
    1f64:	4097d793          	srai	a5,a5,0x9
    1f68:	0017f793          	andi	a5,a5,1
    1f6c:	00f407b3          	add	a5,s0,a5
    1f70:	01079413          	slli	s0,a5,0x10
    1f74:	01045413          	srli	s0,s0,0x10
    1f78:	0009a783          	lw	a5,0(s3)
    1f7c:	00078c63          	beqz	a5,1f94 <core_bench_list+0xd0>
    1f80:	0007a703          	lw	a4,0(a5)
    1f84:	00e9a023          	sw	a4,0(s3)
    1f88:	0004a703          	lw	a4,0(s1)
    1f8c:	00e7a023          	sw	a4,0(a5)
    1f90:	00f4a023          	sw	a5,0(s1)
    1f94:	001a0a13          	addi	s4,s4,1
    1f98:	010a1a13          	slli	s4,s4,0x10
    1f9c:	010a5a13          	srli	s4,s4,0x10
    1fa0:	000d4663          	bltz	s10,1fac <core_bench_list+0xe8>
    1fa4:	001d0d13          	addi	s10,s10,1
    1fa8:	01a11723          	sh	s10,14(sp)
    1fac:	00190913          	addi	s2,s2,1
    1fb0:	01091913          	slli	s2,s2,0x10
    1fb4:	41095913          	srai	s2,s2,0x10
    1fb8:	032c8c63          	beq	s9,s2,1ff0 <core_bench_list+0x12c>
    1fbc:	00e11d03          	lh	s10,14(sp)
    1fc0:	f6dff06f          	j	1f2c <core_bench_list+0x68>
    1fc4:	00052783          	lw	a5,0(a0)
    1fc8:	001c0c13          	addi	s8,s8,1
    1fcc:	010c1c13          	slli	s8,s8,0x10
    1fd0:	0047a783          	lw	a5,4(a5)
    1fd4:	010c5c13          	srli	s8,s8,0x10
    1fd8:	00178783          	lb	a5,1(a5)
    1fdc:	0017f793          	andi	a5,a5,1
    1fe0:	00f407b3          	add	a5,s0,a5
    1fe4:	01079413          	slli	s0,a5,0x10
    1fe8:	01045413          	srli	s0,s0,0x10
    1fec:	fb5ff06f          	j	1fa0 <core_bench_list+0xdc>
    1ff0:	002a1a13          	slli	s4,s4,0x2
    1ff4:	418a0a33          	sub	s4,s4,s8
    1ff8:	01440433          	add	s0,s0,s4
    1ffc:	01812c03          	lw	s8,24(sp)
    2000:	02812a03          	lw	s4,40(sp)
    2004:	01012d03          	lw	s10,16(sp)
    2008:	01041413          	slli	s0,s0,0x10
    200c:	01045413          	srli	s0,s0,0x10
    2010:	01605e63          	blez	s6,202c <__heap_size+0x2c>
    2014:	000025b7          	lui	a1,0x2
    2018:	00048513          	mv	a0,s1
    201c:	000b8613          	mv	a2,s7
    2020:	bf458593          	addi	a1,a1,-1036 # 1bf4 <cmp_complex>
    2024:	d51ff0ef          	jal	1d74 <core_list_mergesort>
    2028:	00050493          	mv	s1,a0
    202c:	0004a503          	lw	a0,0(s1)
    2030:	c85ff0ef          	jal	1cb4 <core_list_remove>
    2034:	00050993          	mv	s3,a0
    2038:	000a8593          	mv	a1,s5
    203c:	00048513          	mv	a0,s1
    2040:	cbdff0ef          	jal	1cfc <core_list_find>
    2044:	00050913          	mv	s2,a0
    2048:	08050e63          	beqz	a0,20e4 <__heap_size+0xe4>
    204c:	0044a783          	lw	a5,4(s1)
    2050:	00040593          	mv	a1,s0
    2054:	00079503          	lh	a0,0(a5)
    2058:	a09ff0ef          	jal	1a60 <crc16>
    205c:	00092903          	lw	s2,0(s2)
    2060:	00050413          	mv	s0,a0
    2064:	fe0914e3          	bnez	s2,204c <__heap_size+0x4c>
    2068:	0004a903          	lw	s2,0(s1)
    206c:	00090593          	mv	a1,s2
    2070:	00098513          	mv	a0,s3
    2074:	c69ff0ef          	jal	1cdc <core_list_undo_remove>
    2078:	000025b7          	lui	a1,0x2
    207c:	00048513          	mv	a0,s1
    2080:	00000613          	li	a2,0
    2084:	a7458593          	addi	a1,a1,-1420 # 1a74 <cmp_idx>
    2088:	cedff0ef          	jal	1d74 <core_list_mergesort>
    208c:	00052483          	lw	s1,0(a0)
    2090:	00050913          	mv	s2,a0
    2094:	02048063          	beqz	s1,20b4 <__heap_size+0xb4>
    2098:	00492783          	lw	a5,4(s2)
    209c:	00040593          	mv	a1,s0
    20a0:	00079503          	lh	a0,0(a5)
    20a4:	9bdff0ef          	jal	1a60 <crc16>
    20a8:	0004a483          	lw	s1,0(s1)
    20ac:	00050413          	mv	s0,a0
    20b0:	fe0494e3          	bnez	s1,2098 <__heap_size+0x98>
    20b4:	03c12083          	lw	ra,60(sp)
    20b8:	00040513          	mv	a0,s0
    20bc:	03812403          	lw	s0,56(sp)
    20c0:	03412483          	lw	s1,52(sp)
    20c4:	03012903          	lw	s2,48(sp)
    20c8:	02c12983          	lw	s3,44(sp)
    20cc:	02412a83          	lw	s5,36(sp)
    20d0:	02012b03          	lw	s6,32(sp)
    20d4:	01c12b83          	lw	s7,28(sp)
    20d8:	01412c83          	lw	s9,20(sp)
    20dc:	04010113          	addi	sp,sp,64
    20e0:	00008067          	ret
    20e4:	0004a903          	lw	s2,0(s1)
    20e8:	f60912e3          	bnez	s2,204c <__heap_size+0x4c>
    20ec:	f81ff06f          	j	206c <__heap_size+0x6c>
    20f0:	00000413          	li	s0,0
    20f4:	00c10a93          	addi	s5,sp,12
    20f8:	f19ff06f          	j	2010 <__heap_size+0x10>

000020fc <core_list_init>:
    20fc:	fc010113          	addi	sp,sp,-64
    2100:	01400793          	li	a5,20
    2104:	03212823          	sw	s2,48(sp)
    2108:	02f55933          	divu	s2,a0,a5
    210c:	02812c23          	sw	s0,56(sp)
    2110:	02912a23          	sw	s1,52(sp)
    2114:	03312623          	sw	s3,44(sp)
    2118:	03412423          	sw	s4,40(sp)
    211c:	02112e23          	sw	ra,60(sp)
    2120:	00058413          	mv	s0,a1
    2124:	00858713          	addi	a4,a1,8
    2128:	0005a023          	sw	zero,0(a1)
    212c:	ffff87b7          	lui	a5,0xffff8
    2130:	00e12623          	sw	a4,12(sp)
    2134:	80000737          	lui	a4,0x80000
    2138:	08078793          	addi	a5,a5,128 # ffff8080 <__stack_top+0xfffeb720>
    213c:	fff70713          	addi	a4,a4,-1 # 7fffffff <__stack_top+0x7fff369f>
    2140:	00060493          	mv	s1,a2
    2144:	00e12e23          	sw	a4,28(sp)
    2148:	01810693          	addi	a3,sp,24
    214c:	00c10613          	addi	a2,sp,12
    2150:	01c10593          	addi	a1,sp,28
    2154:	00040513          	mv	a0,s0
    2158:	ffe90913          	addi	s2,s2,-2
    215c:	00391993          	slli	s3,s2,0x3
    2160:	013409b3          	add	s3,s0,s3
    2164:	00291a13          	slli	s4,s2,0x2
    2168:	01342223          	sw	s3,4(s0)
    216c:	01498a33          	add	s4,s3,s4
    2170:	00498813          	addi	a6,s3,4
    2174:	00f99023          	sh	a5,0(s3)
    2178:	00099123          	sh	zero,2(s3)
    217c:	000a0793          	mv	a5,s4
    2180:	00098713          	mv	a4,s3
    2184:	01012c23          	sw	a6,24(sp)
    2188:	acdff0ef          	jal	1c54 <core_list_insert_new>
    218c:	06090663          	beqz	s2,21f8 <core_list_init+0xfc>
    2190:	03512223          	sw	s5,36(sp)
    2194:	01049a93          	slli	s5,s1,0x10
    2198:	03612023          	sw	s6,32(sp)
    219c:	010ada93          	srli	s5,s5,0x10
    21a0:	00000b13          	li	s6,0
    21a4:	010b1693          	slli	a3,s6,0x10
    21a8:	0106d693          	srli	a3,a3,0x10
    21ac:	0156c733          	xor	a4,a3,s5
    21b0:	00371713          	slli	a4,a4,0x3
    21b4:	0076f693          	andi	a3,a3,7
    21b8:	07877713          	andi	a4,a4,120
    21bc:	00d76733          	or	a4,a4,a3
    21c0:	00871793          	slli	a5,a4,0x8
    21c4:	00f70833          	add	a6,a4,a5
    21c8:	01810693          	addi	a3,sp,24
    21cc:	000a0793          	mv	a5,s4
    21d0:	00098713          	mv	a4,s3
    21d4:	00c10613          	addi	a2,sp,12
    21d8:	01c10593          	addi	a1,sp,28
    21dc:	00040513          	mv	a0,s0
    21e0:	001b0b13          	addi	s6,s6,1
    21e4:	01011e23          	sh	a6,28(sp)
    21e8:	a6dff0ef          	jal	1c54 <core_list_insert_new>
    21ec:	fb691ce3          	bne	s2,s6,21a4 <core_list_init+0xa8>
    21f0:	02412a83          	lw	s5,36(sp)
    21f4:	02012b03          	lw	s6,32(sp)
    21f8:	00042503          	lw	a0,0(s0)
    21fc:	00052603          	lw	a2,0(a0)
    2200:	08060663          	beqz	a2,228c <core_list_init+0x190>
    2204:	00500793          	li	a5,5
    2208:	00004837          	lui	a6,0x4
    220c:	02f95933          	divu	s2,s2,a5
    2210:	20000713          	li	a4,512
    2214:	00100693          	li	a3,1
    2218:	fff80813          	addi	a6,a6,-1 # 3fff <__udivdi3+0xcf>
    221c:	0300006f          	j	224c <core_list_init+0x150>
    2220:	01069793          	slli	a5,a3,0x10
    2224:	00062583          	lw	a1,0(a2)
    2228:	4107d793          	srai	a5,a5,0x10
    222c:	10070713          	addi	a4,a4,256
    2230:	00f51123          	sh	a5,2(a0)
    2234:	01071713          	slli	a4,a4,0x10
    2238:	00060513          	mv	a0,a2
    223c:	00168693          	addi	a3,a3,1
    2240:	01075713          	srli	a4,a4,0x10
    2244:	04058463          	beqz	a1,228c <core_list_init+0x190>
    2248:	00058613          	mv	a2,a1
    224c:	70077793          	andi	a5,a4,1792
    2250:	0096c5b3          	xor	a1,a3,s1
    2254:	00b7e7b3          	or	a5,a5,a1
    2258:	00452503          	lw	a0,4(a0)
    225c:	0107f7b3          	and	a5,a5,a6
    2260:	fd26e0e3          	bltu	a3,s2,2220 <core_list_init+0x124>
    2264:	00062583          	lw	a1,0(a2)
    2268:	01079793          	slli	a5,a5,0x10
    226c:	4107d793          	srai	a5,a5,0x10
    2270:	10070713          	addi	a4,a4,256
    2274:	00f51123          	sh	a5,2(a0)
    2278:	01071713          	slli	a4,a4,0x10
    227c:	00060513          	mv	a0,a2
    2280:	00168693          	addi	a3,a3,1
    2284:	01075713          	srli	a4,a4,0x10
    2288:	fc0590e3          	bnez	a1,2248 <core_list_init+0x14c>
    228c:	000025b7          	lui	a1,0x2
    2290:	00040513          	mv	a0,s0
    2294:	00000613          	li	a2,0
    2298:	a7458593          	addi	a1,a1,-1420 # 1a74 <cmp_idx>
    229c:	ad9ff0ef          	jal	1d74 <core_list_mergesort>
    22a0:	03c12083          	lw	ra,60(sp)
    22a4:	03812403          	lw	s0,56(sp)
    22a8:	03412483          	lw	s1,52(sp)
    22ac:	03012903          	lw	s2,48(sp)
    22b0:	02c12983          	lw	s3,44(sp)
    22b4:	02812a03          	lw	s4,40(sp)
    22b8:	04010113          	addi	sp,sp,64
    22bc:	00008067          	ret

000022c0 <core_init_matrix>:
    22c0:	ff010113          	addi	sp,sp,-16
    22c4:	00912423          	sw	s1,8(sp)
    22c8:	01212223          	sw	s2,4(sp)
    22cc:	00050813          	mv	a6,a0
    22d0:	00061463          	bnez	a2,22d8 <core_init_matrix+0x18>
    22d4:	00100613          	li	a2,1
    22d8:	00000793          	li	a5,0
    22dc:	10080663          	beqz	a6,23e8 <core_init_matrix+0x128>
    22e0:	00078513          	mv	a0,a5
    22e4:	00178793          	addi	a5,a5,1
    22e8:	02f78733          	mul	a4,a5,a5
    22ec:	00371713          	slli	a4,a4,0x3
    22f0:	ff0768e3          	bltu	a4,a6,22e0 <core_init_matrix+0x20>
    22f4:	02a502b3          	mul	t0,a0,a0
    22f8:	fff58593          	addi	a1,a1,-1
    22fc:	ffc5f793          	andi	a5,a1,-4
    2300:	00478493          	addi	s1,a5,4
    2304:	00050913          	mv	s2,a0
    2308:	00048e13          	mv	t3,s1
    230c:	00129293          	slli	t0,t0,0x1
    2310:	005483b3          	add	t2,s1,t0
    2314:	0c050663          	beqz	a0,23e0 <core_init_matrix+0x120>
    2318:	00812623          	sw	s0,12(sp)
    231c:	01312023          	sw	s3,0(sp)
    2320:	00010eb7          	lui	t4,0x10
    2324:	00150313          	addi	t1,a0,1
    2328:	00151413          	slli	s0,a0,0x1
    232c:	00038f13          	mv	t5,t2
    2330:	00000f93          	li	t6,0
    2334:	00100713          	li	a4,1
    2338:	407e0e33          	sub	t3,t3,t2
    233c:	fffe8e93          	addi	t4,t4,-1 # ffff <__stack_top+0x369f>
    2340:	00070993          	mv	s3,a4
    2344:	000f0813          	mv	a6,t5
    2348:	02e60633          	mul	a2,a2,a4
    234c:	01071793          	slli	a5,a4,0x10
    2350:	0107d793          	srli	a5,a5,0x10
    2354:	010e08b3          	add	a7,t3,a6
    2358:	00280813          	addi	a6,a6,2
    235c:	00170713          	addi	a4,a4,1
    2360:	41f65593          	srai	a1,a2,0x1f
    2364:	0105d593          	srli	a1,a1,0x10
    2368:	00b60633          	add	a2,a2,a1
    236c:	01d67633          	and	a2,a2,t4
    2370:	40b60633          	sub	a2,a2,a1
    2374:	00c785b3          	add	a1,a5,a2
    2378:	01059593          	slli	a1,a1,0x10
    237c:	0105d593          	srli	a1,a1,0x10
    2380:	00f587b3          	add	a5,a1,a5
    2384:	feb81f23          	sh	a1,-2(a6)
    2388:	0ff7f793          	zext.b	a5,a5
    238c:	00f89023          	sh	a5,0(a7)
    2390:	fa671ce3          	bne	a4,t1,2348 <core_init_matrix+0x88>
    2394:	001f8f93          	addi	t6,t6,1
    2398:	01350733          	add	a4,a0,s3
    239c:	00a30333          	add	t1,t1,a0
    23a0:	008f0f33          	add	t5,t5,s0
    23a4:	f9f51ee3          	bne	a0,t6,2340 <core_init_matrix+0x80>
    23a8:	00c12403          	lw	s0,12(sp)
    23ac:	00012983          	lw	s3,0(sp)
    23b0:	005387b3          	add	a5,t2,t0
    23b4:	fff78793          	addi	a5,a5,-1
    23b8:	ffc7f793          	andi	a5,a5,-4
    23bc:	00478793          	addi	a5,a5,4
    23c0:	0096a223          	sw	s1,4(a3)
    23c4:	0126a023          	sw	s2,0(a3)
    23c8:	0076a423          	sw	t2,8(a3)
    23cc:	00f6a623          	sw	a5,12(a3)
    23d0:	00812483          	lw	s1,8(sp)
    23d4:	00412903          	lw	s2,4(sp)
    23d8:	01010113          	addi	sp,sp,16
    23dc:	00008067          	ret
    23e0:	00000293          	li	t0,0
    23e4:	fcdff06f          	j	23b0 <core_init_matrix+0xf0>
    23e8:	fff58593          	addi	a1,a1,-1
    23ec:	ffc5f393          	andi	t2,a1,-4
    23f0:	00438e13          	addi	t3,t2,4
    23f4:	00812623          	sw	s0,12(sp)
    23f8:	01312023          	sw	s3,0(sp)
    23fc:	000e0493          	mv	s1,t3
    2400:	00638393          	addi	t2,t2,6
    2404:	fff00913          	li	s2,-1
    2408:	00200293          	li	t0,2
    240c:	fff00513          	li	a0,-1
    2410:	f11ff06f          	j	2320 <core_init_matrix+0x60>

00002414 <matrix_sum>:
    2414:	00050e93          	mv	t4,a0
    2418:	08050463          	beqz	a0,24a0 <matrix_sum+0x8c>
    241c:	00251f93          	slli	t6,a0,0x2
    2420:	40a00f33          	neg	t5,a0
    2424:	01f588b3          	add	a7,a1,t6
    2428:	00000e13          	li	t3,0
    242c:	00000513          	li	a0,0
    2430:	00000713          	li	a4,0
    2434:	00000593          	li	a1,0
    2438:	003f1f13          	slli	t5,t5,0x3
    243c:	41f88333          	sub	t1,a7,t6
    2440:	00030793          	mv	a5,t1
    2444:	0140006f          	j	2458 <matrix_sum+0x44>
    2448:	01051513          	slli	a0,a0,0x10
    244c:	00478793          	addi	a5,a5,4
    2450:	41055513          	srai	a0,a0,0x10
    2454:	02f88e63          	beq	a7,a5,2490 <matrix_sum+0x7c>
    2458:	00070693          	mv	a3,a4
    245c:	0007a703          	lw	a4,0(a5)
    2460:	01051513          	slli	a0,a0,0x10
    2464:	01055513          	srli	a0,a0,0x10
    2468:	00e6a6b3          	slt	a3,a3,a4
    246c:	00e585b3          	add	a1,a1,a4
    2470:	00a50813          	addi	a6,a0,10
    2474:	00d50533          	add	a0,a0,a3
    2478:	fcb658e3          	bge	a2,a1,2448 <matrix_sum+0x34>
    247c:	01081513          	slli	a0,a6,0x10
    2480:	00478793          	addi	a5,a5,4
    2484:	41055513          	srai	a0,a0,0x10
    2488:	00000593          	li	a1,0
    248c:	fcf896e3          	bne	a7,a5,2458 <matrix_sum+0x44>
    2490:	001e0e13          	addi	t3,t3,1
    2494:	41e308b3          	sub	a7,t1,t5
    2498:	fbce92e3          	bne	t4,t3,243c <matrix_sum+0x28>
    249c:	00008067          	ret
    24a0:	00000513          	li	a0,0
    24a4:	00008067          	ret

000024a8 <matrix_mul_const>:
    24a8:	04050a63          	beqz	a0,24fc <matrix_mul_const+0x54>
    24ac:	00151f13          	slli	t5,a0,0x1
    24b0:	40a00eb3          	neg	t4,a0
    24b4:	01e60833          	add	a6,a2,t5
    24b8:	00000313          	li	t1,0
    24bc:	00000e13          	li	t3,0
    24c0:	002e9e93          	slli	t4,t4,0x2
    24c4:	41e808b3          	sub	a7,a6,t5
    24c8:	00231613          	slli	a2,t1,0x2
    24cc:	00c58633          	add	a2,a1,a2
    24d0:	00088793          	mv	a5,a7
    24d4:	00079703          	lh	a4,0(a5)
    24d8:	00460613          	addi	a2,a2,4
    24dc:	00278793          	addi	a5,a5,2
    24e0:	02d70733          	mul	a4,a4,a3
    24e4:	fee62e23          	sw	a4,-4(a2)
    24e8:	ff0796e3          	bne	a5,a6,24d4 <matrix_mul_const+0x2c>
    24ec:	001e0e13          	addi	t3,t3,1
    24f0:	00a30333          	add	t1,t1,a0
    24f4:	41d88833          	sub	a6,a7,t4
    24f8:	fdc516e3          	bne	a0,t3,24c4 <matrix_mul_const+0x1c>
    24fc:	00008067          	ret

00002500 <matrix_add_const>:
    2500:	04050463          	beqz	a0,2548 <matrix_add_const+0x48>
    2504:	00151313          	slli	t1,a0,0x1
    2508:	40a008b3          	neg	a7,a0
    250c:	01061613          	slli	a2,a2,0x10
    2510:	01065613          	srli	a2,a2,0x10
    2514:	006586b3          	add	a3,a1,t1
    2518:	00000813          	li	a6,0
    251c:	00289893          	slli	a7,a7,0x2
    2520:	406685b3          	sub	a1,a3,t1
    2524:	00058793          	mv	a5,a1
    2528:	0007d703          	lhu	a4,0(a5)
    252c:	00278793          	addi	a5,a5,2
    2530:	00e60733          	add	a4,a2,a4
    2534:	fee79f23          	sh	a4,-2(a5)
    2538:	fef698e3          	bne	a3,a5,2528 <matrix_add_const+0x28>
    253c:	00180813          	addi	a6,a6,1
    2540:	411586b3          	sub	a3,a1,a7
    2544:	fd051ee3          	bne	a0,a6,2520 <matrix_add_const+0x20>
    2548:	00008067          	ret

0000254c <matrix_mul_vect>:
    254c:	04050a63          	beqz	a0,25a0 <matrix_mul_vect+0x54>
    2550:	00251f13          	slli	t5,a0,0x2
    2554:	00151e13          	slli	t3,a0,0x1
    2558:	01e58f33          	add	t5,a1,t5
    255c:	01c68e33          	add	t3,a3,t3
    2560:	00000e93          	li	t4,0
    2564:	001e9813          	slli	a6,t4,0x1
    2568:	01060833          	add	a6,a2,a6
    256c:	00068793          	mv	a5,a3
    2570:	00000893          	li	a7,0
    2574:	00081703          	lh	a4,0(a6)
    2578:	00079303          	lh	t1,0(a5)
    257c:	00278793          	addi	a5,a5,2
    2580:	00280813          	addi	a6,a6,2
    2584:	02670733          	mul	a4,a4,t1
    2588:	00e888b3          	add	a7,a7,a4
    258c:	fefe14e3          	bne	t3,a5,2574 <matrix_mul_vect+0x28>
    2590:	0115a023          	sw	a7,0(a1)
    2594:	00458593          	addi	a1,a1,4
    2598:	00ae8eb3          	add	t4,t4,a0
    259c:	fcbf14e3          	bne	t5,a1,2564 <matrix_mul_vect+0x18>
    25a0:	00008067          	ret

000025a4 <matrix_mul_matrix>:
    25a4:	0a050463          	beqz	a0,264c <matrix_mul_matrix+0xa8>
    25a8:	ff010113          	addi	sp,sp,-16
    25ac:	00050f13          	mv	t5,a0
    25b0:	00151513          	slli	a0,a0,0x1
    25b4:	00812623          	sw	s0,12(sp)
    25b8:	00058393          	mv	t2,a1
    25bc:	00068413          	mv	s0,a3
    25c0:	00060e93          	mv	t4,a2
    25c4:	00a60833          	add	a6,a2,a0
    25c8:	00000f93          	li	t6,0
    25cc:	00000293          	li	t0,0
    25d0:	002f9893          	slli	a7,t6,0x2
    25d4:	011388b3          	add	a7,t2,a7
    25d8:	00040313          	mv	t1,s0
    25dc:	00000e13          	li	t3,0
    25e0:	00030693          	mv	a3,t1
    25e4:	000e8793          	mv	a5,t4
    25e8:	00000613          	li	a2,0
    25ec:	00079703          	lh	a4,0(a5)
    25f0:	00069583          	lh	a1,0(a3)
    25f4:	00278793          	addi	a5,a5,2
    25f8:	00a686b3          	add	a3,a3,a0
    25fc:	02b70733          	mul	a4,a4,a1
    2600:	00e60633          	add	a2,a2,a4
    2604:	fef814e3          	bne	a6,a5,25ec <matrix_mul_matrix+0x48>
    2608:	00c8a023          	sw	a2,0(a7)
    260c:	001e0793          	addi	a5,t3,1
    2610:	00488893          	addi	a7,a7,4
    2614:	00230313          	addi	t1,t1,2
    2618:	00ff0663          	beq	t5,a5,2624 <matrix_mul_matrix+0x80>
    261c:	00078e13          	mv	t3,a5
    2620:	fc1ff06f          	j	25e0 <matrix_mul_matrix+0x3c>
    2624:	00128793          	addi	a5,t0,1
    2628:	00ae8eb3          	add	t4,t4,a0
    262c:	01ef8fb3          	add	t6,t6,t5
    2630:	00a80833          	add	a6,a6,a0
    2634:	01c28663          	beq	t0,t3,2640 <matrix_mul_matrix+0x9c>
    2638:	00078293          	mv	t0,a5
    263c:	f95ff06f          	j	25d0 <matrix_mul_matrix+0x2c>
    2640:	00c12403          	lw	s0,12(sp)
    2644:	01010113          	addi	sp,sp,16
    2648:	00008067          	ret
    264c:	00008067          	ret

00002650 <matrix_mul_matrix_bitextract>:
    2650:	0a050e63          	beqz	a0,270c <matrix_mul_matrix_bitextract+0xbc>
    2654:	ff010113          	addi	sp,sp,-16
    2658:	00050f13          	mv	t5,a0
    265c:	00151513          	slli	a0,a0,0x1
    2660:	00812623          	sw	s0,12(sp)
    2664:	00058393          	mv	t2,a1
    2668:	00068413          	mv	s0,a3
    266c:	00060e93          	mv	t4,a2
    2670:	00a60833          	add	a6,a2,a0
    2674:	00000f93          	li	t6,0
    2678:	00000293          	li	t0,0
    267c:	002f9893          	slli	a7,t6,0x2
    2680:	011388b3          	add	a7,t2,a7
    2684:	00040313          	mv	t1,s0
    2688:	00000e13          	li	t3,0
    268c:	00030613          	mv	a2,t1
    2690:	000e8693          	mv	a3,t4
    2694:	00000593          	li	a1,0
    2698:	00061703          	lh	a4,0(a2)
    269c:	00069783          	lh	a5,0(a3)
    26a0:	00268693          	addi	a3,a3,2
    26a4:	00a60633          	add	a2,a2,a0
    26a8:	02e787b3          	mul	a5,a5,a4
    26ac:	4027d713          	srai	a4,a5,0x2
    26b0:	4057d793          	srai	a5,a5,0x5
    26b4:	00f77713          	andi	a4,a4,15
    26b8:	07f7f793          	andi	a5,a5,127
    26bc:	02f707b3          	mul	a5,a4,a5
    26c0:	00f585b3          	add	a1,a1,a5
    26c4:	fcd81ae3          	bne	a6,a3,2698 <matrix_mul_matrix_bitextract+0x48>
    26c8:	00b8a023          	sw	a1,0(a7)
    26cc:	001e0793          	addi	a5,t3,1
    26d0:	00488893          	addi	a7,a7,4
    26d4:	00230313          	addi	t1,t1,2
    26d8:	00ff0663          	beq	t5,a5,26e4 <matrix_mul_matrix_bitextract+0x94>
    26dc:	00078e13          	mv	t3,a5
    26e0:	fadff06f          	j	268c <matrix_mul_matrix_bitextract+0x3c>
    26e4:	00128793          	addi	a5,t0,1
    26e8:	00ae8eb3          	add	t4,t4,a0
    26ec:	01ef8fb3          	add	t6,t6,t5
    26f0:	00a80833          	add	a6,a6,a0
    26f4:	01c28663          	beq	t0,t3,2700 <matrix_mul_matrix_bitextract+0xb0>
    26f8:	00078293          	mv	t0,a5
    26fc:	f81ff06f          	j	267c <matrix_mul_matrix_bitextract+0x2c>
    2700:	00c12403          	lw	s0,12(sp)
    2704:	01010113          	addi	sp,sp,16
    2708:	00008067          	ret
    270c:	00008067          	ret

00002710 <matrix_test>:
    2710:	fe010113          	addi	sp,sp,-32
    2714:	01212823          	sw	s2,16(sp)
    2718:	00060913          	mv	s2,a2
    271c:	00912a23          	sw	s1,20(sp)
    2720:	00070613          	mv	a2,a4
    2724:	01412423          	sw	s4,8(sp)
    2728:	00058493          	mv	s1,a1
    272c:	fffffa37          	lui	s4,0xfffff
    2730:	00090593          	mv	a1,s2
    2734:	00112e23          	sw	ra,28(sp)
    2738:	01476a33          	or	s4,a4,s4
    273c:	00812c23          	sw	s0,24(sp)
    2740:	01312623          	sw	s3,12(sp)
    2744:	01512223          	sw	s5,4(sp)
    2748:	00070993          	mv	s3,a4
    274c:	01612023          	sw	s6,0(sp)
    2750:	00050413          	mv	s0,a0
    2754:	00068a93          	mv	s5,a3
    2758:	da9ff0ef          	jal	2500 <matrix_add_const>
    275c:	00098693          	mv	a3,s3
    2760:	00090613          	mv	a2,s2
    2764:	00048593          	mv	a1,s1
    2768:	00040513          	mv	a0,s0
    276c:	d3dff0ef          	jal	24a8 <matrix_mul_const>
    2770:	000a0613          	mv	a2,s4
    2774:	00048593          	mv	a1,s1
    2778:	00040513          	mv	a0,s0
    277c:	c99ff0ef          	jal	2414 <matrix_sum>
    2780:	00000593          	li	a1,0
    2784:	adcff0ef          	jal	1a60 <crc16>
    2788:	000a8693          	mv	a3,s5
    278c:	00050b13          	mv	s6,a0
    2790:	00090613          	mv	a2,s2
    2794:	00048593          	mv	a1,s1
    2798:	00040513          	mv	a0,s0
    279c:	db1ff0ef          	jal	254c <matrix_mul_vect>
    27a0:	000a0613          	mv	a2,s4
    27a4:	00048593          	mv	a1,s1
    27a8:	00040513          	mv	a0,s0
    27ac:	c69ff0ef          	jal	2414 <matrix_sum>
    27b0:	000b0593          	mv	a1,s6
    27b4:	aacff0ef          	jal	1a60 <crc16>
    27b8:	000a8693          	mv	a3,s5
    27bc:	00050b13          	mv	s6,a0
    27c0:	00090613          	mv	a2,s2
    27c4:	00048593          	mv	a1,s1
    27c8:	00040513          	mv	a0,s0
    27cc:	dd9ff0ef          	jal	25a4 <matrix_mul_matrix>
    27d0:	000a0613          	mv	a2,s4
    27d4:	00048593          	mv	a1,s1
    27d8:	00040513          	mv	a0,s0
    27dc:	c39ff0ef          	jal	2414 <matrix_sum>
    27e0:	000b0593          	mv	a1,s6
    27e4:	a7cff0ef          	jal	1a60 <crc16>
    27e8:	00050793          	mv	a5,a0
    27ec:	000a8693          	mv	a3,s5
    27f0:	00090613          	mv	a2,s2
    27f4:	00048593          	mv	a1,s1
    27f8:	00040513          	mv	a0,s0
    27fc:	00078a93          	mv	s5,a5
    2800:	e51ff0ef          	jal	2650 <matrix_mul_matrix_bitextract>
    2804:	000a0613          	mv	a2,s4
    2808:	00048593          	mv	a1,s1
    280c:	00040513          	mv	a0,s0
    2810:	c05ff0ef          	jal	2414 <matrix_sum>
    2814:	000a8593          	mv	a1,s5
    2818:	a48ff0ef          	jal	1a60 <crc16>
    281c:	41300633          	neg	a2,s3
    2820:	01061613          	slli	a2,a2,0x10
    2824:	00050793          	mv	a5,a0
    2828:	00090593          	mv	a1,s2
    282c:	00040513          	mv	a0,s0
    2830:	41065613          	srai	a2,a2,0x10
    2834:	00078413          	mv	s0,a5
    2838:	cc9ff0ef          	jal	2500 <matrix_add_const>
    283c:	01c12083          	lw	ra,28(sp)
    2840:	01041513          	slli	a0,s0,0x10
    2844:	01812403          	lw	s0,24(sp)
    2848:	01412483          	lw	s1,20(sp)
    284c:	01012903          	lw	s2,16(sp)
    2850:	00c12983          	lw	s3,12(sp)
    2854:	00812a03          	lw	s4,8(sp)
    2858:	00412a83          	lw	s5,4(sp)
    285c:	00012b03          	lw	s6,0(sp)
    2860:	41055513          	srai	a0,a0,0x10
    2864:	02010113          	addi	sp,sp,32
    2868:	00008067          	ret

0000286c <core_bench_matrix>:
    286c:	ff010113          	addi	sp,sp,-16
    2870:	00812423          	sw	s0,8(sp)
    2874:	00852683          	lw	a3,8(a0)
    2878:	00060413          	mv	s0,a2
    287c:	00058713          	mv	a4,a1
    2880:	00452603          	lw	a2,4(a0)
    2884:	00c52583          	lw	a1,12(a0)
    2888:	00052503          	lw	a0,0(a0)
    288c:	00112623          	sw	ra,12(sp)
    2890:	e81ff0ef          	jal	2710 <matrix_test>
    2894:	00040593          	mv	a1,s0
    2898:	00812403          	lw	s0,8(sp)
    289c:	00c12083          	lw	ra,12(sp)
    28a0:	01010113          	addi	sp,sp,16
    28a4:	9bcff06f          	j	1a60 <crc16>

000028a8 <core_init_state>:
    28a8:	fff50893          	addi	a7,a0,-1
    28ac:	00100793          	li	a5,1
    28b0:	1317f063          	bgeu	a5,a7,29d0 <core_init_state+0x128>
    28b4:	00158593          	addi	a1,a1,1
    28b8:	01059593          	slli	a1,a1,0x10
    28bc:	0105d593          	srli	a1,a1,0x10
    28c0:	ff010113          	addi	sp,sp,-16
    28c4:	00008837          	lui	a6,0x8
    28c8:	0035d793          	srli	a5,a1,0x3
    28cc:	00812623          	sw	s0,12(sp)
    28d0:	00700313          	li	t1,7
    28d4:	0075f693          	andi	a3,a1,7
    28d8:	00000713          	li	a4,0
    28dc:	63880813          	addi	a6,a6,1592 # 8638 <intpat>
    28e0:	00400e13          	li	t3,4
    28e4:	00100e93          	li	t4,1
    28e8:	02c00f13          	li	t5,44
    28ec:	0037f793          	andi	a5,a5,3
    28f0:	06668e63          	beq	a3,t1,296c <core_init_state+0xc4>
    28f4:	0cde6463          	bltu	t3,a3,29bc <core_init_state+0x114>
    28f8:	ffd68693          	addi	a3,a3,-3
    28fc:	01069693          	slli	a3,a3,0x10
    2900:	00279793          	slli	a5,a5,0x2
    2904:	0106d693          	srli	a3,a3,0x10
    2908:	00f807b3          	add	a5,a6,a5
    290c:	0adee263          	bltu	t4,a3,29b0 <core_init_state+0x108>
    2910:	0107a783          	lw	a5,16(a5)
    2914:	00800293          	li	t0,8
    2918:	00170693          	addi	a3,a4,1
    291c:	00568433          	add	s0,a3,t0
    2920:	07147463          	bgeu	s0,a7,2988 <core_init_state+0xe0>
    2924:	00e60733          	add	a4,a2,a4
    2928:	00070693          	mv	a3,a4
    292c:	005783b3          	add	t2,a5,t0
    2930:	0007cf83          	lbu	t6,0(a5)
    2934:	00178793          	addi	a5,a5,1
    2938:	00168693          	addi	a3,a3,1
    293c:	fff68fa3          	sb	t6,-1(a3)
    2940:	fef398e3          	bne	t2,a5,2930 <core_init_state+0x88>
    2944:	00158593          	addi	a1,a1,1
    2948:	01059593          	slli	a1,a1,0x10
    294c:	00570733          	add	a4,a4,t0
    2950:	0105d593          	srli	a1,a1,0x10
    2954:	01e70023          	sb	t5,0(a4)
    2958:	0035d793          	srli	a5,a1,0x3
    295c:	0075f693          	andi	a3,a1,7
    2960:	00040713          	mv	a4,s0
    2964:	0037f793          	andi	a5,a5,3
    2968:	f86696e3          	bne	a3,t1,28f4 <core_init_state+0x4c>
    296c:	00279793          	slli	a5,a5,0x2
    2970:	00800293          	li	t0,8
    2974:	00170693          	addi	a3,a4,1
    2978:	00f807b3          	add	a5,a6,a5
    297c:	00568433          	add	s0,a3,t0
    2980:	0307a783          	lw	a5,48(a5)
    2984:	fb1460e3          	bltu	s0,a7,2924 <core_init_state+0x7c>
    2988:	00a76663          	bltu	a4,a0,2994 <core_init_state+0xec>
    298c:	0180006f          	j	29a4 <core_init_state+0xfc>
    2990:	00168693          	addi	a3,a3,1
    2994:	00e60733          	add	a4,a2,a4
    2998:	00070023          	sb	zero,0(a4)
    299c:	00068713          	mv	a4,a3
    29a0:	fea6e8e3          	bltu	a3,a0,2990 <core_init_state+0xe8>
    29a4:	00c12403          	lw	s0,12(sp)
    29a8:	01010113          	addi	sp,sp,16
    29ac:	00008067          	ret
    29b0:	0007a783          	lw	a5,0(a5)
    29b4:	00400293          	li	t0,4
    29b8:	f61ff06f          	j	2918 <core_init_state+0x70>
    29bc:	00279793          	slli	a5,a5,0x2
    29c0:	00f807b3          	add	a5,a6,a5
    29c4:	0207a783          	lw	a5,32(a5)
    29c8:	00800293          	li	t0,8
    29cc:	f4dff06f          	j	2918 <core_init_state+0x70>
    29d0:	00000713          	li	a4,0
    29d4:	00100693          	li	a3,1
    29d8:	0080006f          	j	29e0 <core_init_state+0x138>
    29dc:	00168693          	addi	a3,a3,1
    29e0:	00e60733          	add	a4,a2,a4
    29e4:	00070023          	sb	zero,0(a4)
    29e8:	00068713          	mv	a4,a3
    29ec:	fea6e8e3          	bltu	a3,a0,29dc <core_init_state+0x134>
    29f0:	00008067          	ret

000029f4 <core_state_transition>:
    29f4:	00052783          	lw	a5,0(a0)
    29f8:	00050613          	mv	a2,a0
    29fc:	0007c703          	lbu	a4,0(a5)
    2a00:	28070463          	beqz	a4,2c88 <core_state_transition+0x294>
    2a04:	02c00693          	li	a3,44
    2a08:	00000513          	li	a0,0
    2a0c:	1cd70a63          	beq	a4,a3,2be0 <core_state_transition+0x1ec>
    2a10:	fd070513          	addi	a0,a4,-48
    2a14:	0ff57513          	zext.b	a0,a0
    2a18:	00900813          	li	a6,9
    2a1c:	04a87263          	bgeu	a6,a0,2a60 <core_state_transition+0x6c>
    2a20:	02d00513          	li	a0,45
    2a24:	1ca70e63          	beq	a4,a0,2c00 <core_state_transition+0x20c>
    2a28:	02e00513          	li	a0,46
    2a2c:	22a70863          	beq	a4,a0,2c5c <core_state_transition+0x268>
    2a30:	02b00513          	li	a0,43
    2a34:	1ca70663          	beq	a4,a0,2c00 <core_state_transition+0x20c>
    2a38:	0045a683          	lw	a3,4(a1)
    2a3c:	0005a703          	lw	a4,0(a1)
    2a40:	00178793          	addi	a5,a5,1
    2a44:	00168693          	addi	a3,a3,1
    2a48:	00170713          	addi	a4,a4,1
    2a4c:	00d5a223          	sw	a3,4(a1)
    2a50:	00e5a023          	sw	a4,0(a1)
    2a54:	00100513          	li	a0,1
    2a58:	00f62023          	sw	a5,0(a2)
    2a5c:	00008067          	ret
    2a60:	0005a503          	lw	a0,0(a1)
    2a64:	00178713          	addi	a4,a5,1
    2a68:	00150513          	addi	a0,a0,1
    2a6c:	00a5a023          	sw	a0,0(a1)
    2a70:	0017c783          	lbu	a5,1(a5)
    2a74:	04078863          	beqz	a5,2ac4 <core_state_transition+0xd0>
    2a78:	16d78063          	beq	a5,a3,2bd8 <core_state_transition+0x1e4>
    2a7c:	02e00693          	li	a3,46
    2a80:	04d78863          	beq	a5,a3,2ad0 <core_state_transition+0xdc>
    2a84:	fd078793          	addi	a5,a5,-48
    2a88:	0ff7f793          	zext.b	a5,a5
    2a8c:	00900693          	li	a3,9
    2a90:	02f6f263          	bgeu	a3,a5,2ab4 <core_state_transition+0xc0>
    2a94:	0105a683          	lw	a3,16(a1)
    2a98:	00170793          	addi	a5,a4,1
    2a9c:	00100513          	li	a0,1
    2aa0:	00168713          	addi	a4,a3,1
    2aa4:	00e5a823          	sw	a4,16(a1)
    2aa8:	00f62023          	sw	a5,0(a2)
    2aac:	00008067          	ret
    2ab0:	00d5a423          	sw	a3,8(a1)
    2ab4:	00174783          	lbu	a5,1(a4)
    2ab8:	02c00693          	li	a3,44
    2abc:	00170713          	addi	a4,a4,1
    2ac0:	fa079ce3          	bnez	a5,2a78 <core_state_transition+0x84>
    2ac4:	00070793          	mv	a5,a4
    2ac8:	00400513          	li	a0,4
    2acc:	fddff06f          	j	2aa8 <core_state_transition+0xb4>
    2ad0:	0105a783          	lw	a5,16(a1)
    2ad4:	00178793          	addi	a5,a5,1
    2ad8:	00f5a823          	sw	a5,16(a1)
    2adc:	0140006f          	j	2af0 <core_state_transition+0xfc>
    2ae0:	fd078793          	addi	a5,a5,-48
    2ae4:	0ff7f793          	zext.b	a5,a5
    2ae8:	00900693          	li	a3,9
    2aec:	0ef6ee63          	bltu	a3,a5,2be8 <core_state_transition+0x1f4>
    2af0:	00174783          	lbu	a5,1(a4)
    2af4:	00170713          	addi	a4,a4,1
    2af8:	1c078663          	beqz	a5,2cc4 <core_state_transition+0x2d0>
    2afc:	02c00693          	li	a3,44
    2b00:	16d78c63          	beq	a5,a3,2c78 <core_state_transition+0x284>
    2b04:	0df7f693          	andi	a3,a5,223
    2b08:	04500513          	li	a0,69
    2b0c:	fca69ae3          	bne	a3,a0,2ae0 <core_state_transition+0xec>
    2b10:	0145a683          	lw	a3,20(a1)
    2b14:	00170793          	addi	a5,a4,1
    2b18:	00300513          	li	a0,3
    2b1c:	00168693          	addi	a3,a3,1
    2b20:	00d5aa23          	sw	a3,20(a1)
    2b24:	00174683          	lbu	a3,1(a4)
    2b28:	f80680e3          	beqz	a3,2aa8 <core_state_transition+0xb4>
    2b2c:	02c00513          	li	a0,44
    2b30:	16a68a63          	beq	a3,a0,2ca4 <core_state_transition+0x2b0>
    2b34:	00c5a783          	lw	a5,12(a1)
    2b38:	fd568693          	addi	a3,a3,-43
    2b3c:	0fd6f693          	andi	a3,a3,253
    2b40:	00178793          	addi	a5,a5,1
    2b44:	00f5a623          	sw	a5,12(a1)
    2b48:	00068a63          	beqz	a3,2b5c <core_state_transition+0x168>
    2b4c:	00270793          	addi	a5,a4,2
    2b50:	00100513          	li	a0,1
    2b54:	00f62023          	sw	a5,0(a2)
    2b58:	00008067          	ret
    2b5c:	00274683          	lbu	a3,2(a4)
    2b60:	00270793          	addi	a5,a4,2
    2b64:	12068663          	beqz	a3,2c90 <core_state_transition+0x29c>
    2b68:	12a68863          	beq	a3,a0,2c98 <core_state_transition+0x2a4>
    2b6c:	0185a503          	lw	a0,24(a1)
    2b70:	fd068693          	addi	a3,a3,-48
    2b74:	0ff6f693          	zext.b	a3,a3
    2b78:	00150513          	addi	a0,a0,1
    2b7c:	00900813          	li	a6,9
    2b80:	00a5ac23          	sw	a0,24(a1)
    2b84:	00d87a63          	bgeu	a6,a3,2b98 <core_state_transition+0x1a4>
    2b88:	00370793          	addi	a5,a4,3
    2b8c:	00100513          	li	a0,1
    2b90:	00f62023          	sw	a5,0(a2)
    2b94:	00008067          	ret
    2b98:	00900513          	li	a0,9
    2b9c:	0017c683          	lbu	a3,1(a5)
    2ba0:	00078813          	mv	a6,a5
    2ba4:	02c00893          	li	a7,44
    2ba8:	fd068713          	addi	a4,a3,-48
    2bac:	00178793          	addi	a5,a5,1
    2bb0:	0ff77713          	zext.b	a4,a4
    2bb4:	10068463          	beqz	a3,2cbc <core_state_transition+0x2c8>
    2bb8:	0f168c63          	beq	a3,a7,2cb0 <core_state_transition+0x2bc>
    2bbc:	fee570e3          	bgeu	a0,a4,2b9c <core_state_transition+0x1a8>
    2bc0:	0045a703          	lw	a4,4(a1)
    2bc4:	00280793          	addi	a5,a6,2
    2bc8:	00100513          	li	a0,1
    2bcc:	00170713          	addi	a4,a4,1
    2bd0:	00e5a223          	sw	a4,4(a1)
    2bd4:	ed5ff06f          	j	2aa8 <core_state_transition+0xb4>
    2bd8:	00070793          	mv	a5,a4
    2bdc:	00400513          	li	a0,4
    2be0:	00178793          	addi	a5,a5,1
    2be4:	ec5ff06f          	j	2aa8 <core_state_transition+0xb4>
    2be8:	0145a683          	lw	a3,20(a1)
    2bec:	00170793          	addi	a5,a4,1
    2bf0:	00100513          	li	a0,1
    2bf4:	00168713          	addi	a4,a3,1
    2bf8:	00e5aa23          	sw	a4,20(a1)
    2bfc:	eadff06f          	j	2aa8 <core_state_transition+0xb4>
    2c00:	0005a503          	lw	a0,0(a1)
    2c04:	00178713          	addi	a4,a5,1
    2c08:	00150513          	addi	a0,a0,1
    2c0c:	00a5a023          	sw	a0,0(a1)
    2c10:	0017c803          	lbu	a6,1(a5)
    2c14:	00200513          	li	a0,2
    2c18:	00070793          	mv	a5,a4
    2c1c:	e80806e3          	beqz	a6,2aa8 <core_state_transition+0xb4>
    2c20:	0ad80863          	beq	a6,a3,2cd0 <core_state_transition+0x2dc>
    2c24:	0085a683          	lw	a3,8(a1)
    2c28:	fd080793          	addi	a5,a6,-48
    2c2c:	0ff7f793          	zext.b	a5,a5
    2c30:	00900513          	li	a0,9
    2c34:	00168693          	addi	a3,a3,1
    2c38:	e6f57ce3          	bgeu	a0,a5,2ab0 <core_state_transition+0xbc>
    2c3c:	02e00793          	li	a5,46
    2c40:	00f81663          	bne	a6,a5,2c4c <core_state_transition+0x258>
    2c44:	00d5a423          	sw	a3,8(a1)
    2c48:	ea9ff06f          	j	2af0 <core_state_transition+0xfc>
    2c4c:	00d5a423          	sw	a3,8(a1)
    2c50:	00170793          	addi	a5,a4,1
    2c54:	00100513          	li	a0,1
    2c58:	e51ff06f          	j	2aa8 <core_state_transition+0xb4>
    2c5c:	0005a503          	lw	a0,0(a1)
    2c60:	00178713          	addi	a4,a5,1
    2c64:	00150513          	addi	a0,a0,1
    2c68:	00a5a023          	sw	a0,0(a1)
    2c6c:	0017c783          	lbu	a5,1(a5)
    2c70:	04078a63          	beqz	a5,2cc4 <core_state_transition+0x2d0>
    2c74:	e8d798e3          	bne	a5,a3,2b04 <core_state_transition+0x110>
    2c78:	00070793          	mv	a5,a4
    2c7c:	00500513          	li	a0,5
    2c80:	00178793          	addi	a5,a5,1
    2c84:	e25ff06f          	j	2aa8 <core_state_transition+0xb4>
    2c88:	00000513          	li	a0,0
    2c8c:	e1dff06f          	j	2aa8 <core_state_transition+0xb4>
    2c90:	00600513          	li	a0,6
    2c94:	e15ff06f          	j	2aa8 <core_state_transition+0xb4>
    2c98:	00600513          	li	a0,6
    2c9c:	00178793          	addi	a5,a5,1
    2ca0:	e09ff06f          	j	2aa8 <core_state_transition+0xb4>
    2ca4:	00300513          	li	a0,3
    2ca8:	00178793          	addi	a5,a5,1
    2cac:	dfdff06f          	j	2aa8 <core_state_transition+0xb4>
    2cb0:	00700513          	li	a0,7
    2cb4:	00178793          	addi	a5,a5,1
    2cb8:	df1ff06f          	j	2aa8 <core_state_transition+0xb4>
    2cbc:	00700513          	li	a0,7
    2cc0:	de9ff06f          	j	2aa8 <core_state_transition+0xb4>
    2cc4:	00070793          	mv	a5,a4
    2cc8:	00500513          	li	a0,5
    2ccc:	dddff06f          	j	2aa8 <core_state_transition+0xb4>
    2cd0:	00070793          	mv	a5,a4
    2cd4:	00200513          	li	a0,2
    2cd8:	00178793          	addi	a5,a5,1
    2cdc:	dcdff06f          	j	2aa8 <core_state_transition+0xb4>

00002ce0 <core_bench_state>:
    2ce0:	f8010113          	addi	sp,sp,-128
    2ce4:	06912a23          	sw	s1,116(sp)
    2ce8:	07312623          	sw	s3,108(sp)
    2cec:	01010493          	addi	s1,sp,16
    2cf0:	03010993          	addi	s3,sp,48
    2cf4:	06812c23          	sw	s0,120(sp)
    2cf8:	07212823          	sw	s2,112(sp)
    2cfc:	07412423          	sw	s4,104(sp)
    2d00:	07612023          	sw	s6,96(sp)
    2d04:	05712e23          	sw	s7,92(sp)
    2d08:	05812c23          	sw	s8,88(sp)
    2d0c:	00068b13          	mv	s6,a3
    2d10:	00070a13          	mv	s4,a4
    2d14:	00078913          	mv	s2,a5
    2d18:	06112e23          	sw	ra,124(sp)
    2d1c:	07512223          	sw	s5,100(sp)
    2d20:	00058413          	mv	s0,a1
    2d24:	00050c13          	mv	s8,a0
    2d28:	00060b93          	mv	s7,a2
    2d2c:	00b12623          	sw	a1,12(sp)
    2d30:	05010693          	addi	a3,sp,80
    2d34:	00048713          	mv	a4,s1
    2d38:	00098793          	mv	a5,s3
    2d3c:	0007a023          	sw	zero,0(a5)
    2d40:	00072023          	sw	zero,0(a4)
    2d44:	00478793          	addi	a5,a5,4
    2d48:	00470713          	addi	a4,a4,4
    2d4c:	fed798e3          	bne	a5,a3,2d3c <core_bench_state+0x5c>
    2d50:	00044783          	lbu	a5,0(s0)
    2d54:	00c10a93          	addi	s5,sp,12
    2d58:	10078e63          	beqz	a5,2e74 <core_bench_state+0x194>
    2d5c:	03010593          	addi	a1,sp,48
    2d60:	000a8513          	mv	a0,s5
    2d64:	c91ff0ef          	jal	29f4 <core_state_transition>
    2d68:	00251813          	slli	a6,a0,0x2
    2d6c:	05080793          	addi	a5,a6,80
    2d70:	00278833          	add	a6,a5,sp
    2d74:	00c12703          	lw	a4,12(sp)
    2d78:	fc082783          	lw	a5,-64(a6)
    2d7c:	00074703          	lbu	a4,0(a4)
    2d80:	00178793          	addi	a5,a5,1
    2d84:	fcf82023          	sw	a5,-64(a6)
    2d88:	fc071ae3          	bnez	a4,2d5c <core_bench_state+0x7c>
    2d8c:	00812623          	sw	s0,12(sp)
    2d90:	01840c33          	add	s8,s0,s8
    2d94:	03847863          	bgeu	s0,s8,2dc4 <core_bench_state+0xe4>
    2d98:	00040793          	mv	a5,s0
    2d9c:	02c00613          	li	a2,44
    2da0:	0007c703          	lbu	a4,0(a5)
    2da4:	017746b3          	xor	a3,a4,s7
    2da8:	00c70463          	beq	a4,a2,2db0 <core_bench_state+0xd0>
    2dac:	00d78023          	sb	a3,0(a5)
    2db0:	014787b3          	add	a5,a5,s4
    2db4:	ff87e6e3          	bltu	a5,s8,2da0 <core_bench_state+0xc0>
    2db8:	00044783          	lbu	a5,0(s0)
    2dbc:	00c10a93          	addi	s5,sp,12
    2dc0:	02078a63          	beqz	a5,2df4 <core_bench_state+0x114>
    2dc4:	03010593          	addi	a1,sp,48
    2dc8:	000a8513          	mv	a0,s5
    2dcc:	c29ff0ef          	jal	29f4 <core_state_transition>
    2dd0:	00251613          	slli	a2,a0,0x2
    2dd4:	05060793          	addi	a5,a2,80
    2dd8:	00278633          	add	a2,a5,sp
    2ddc:	00c12703          	lw	a4,12(sp)
    2de0:	fc062783          	lw	a5,-64(a2)
    2de4:	00074703          	lbu	a4,0(a4)
    2de8:	00178793          	addi	a5,a5,1
    2dec:	fcf62023          	sw	a5,-64(a2)
    2df0:	fc071ae3          	bnez	a4,2dc4 <core_bench_state+0xe4>
    2df4:	00812623          	sw	s0,12(sp)
    2df8:	02c00693          	li	a3,44
    2dfc:	01847e63          	bgeu	s0,s8,2e18 <core_bench_state+0x138>
    2e00:	00044783          	lbu	a5,0(s0)
    2e04:	0167c733          	xor	a4,a5,s6
    2e08:	00d78463          	beq	a5,a3,2e10 <core_bench_state+0x130>
    2e0c:	00e40023          	sb	a4,0(s0)
    2e10:	01440433          	add	s0,s0,s4
    2e14:	ff8466e3          	bltu	s0,s8,2e00 <core_bench_state+0x120>
    2e18:	02048413          	addi	s0,s1,32
    2e1c:	0004a503          	lw	a0,0(s1)
    2e20:	00090593          	mv	a1,s2
    2e24:	00448493          	addi	s1,s1,4
    2e28:	c05fe0ef          	jal	1a2c <crcu32>
    2e2c:	00050593          	mv	a1,a0
    2e30:	0009a503          	lw	a0,0(s3)
    2e34:	00498993          	addi	s3,s3,4
    2e38:	bf5fe0ef          	jal	1a2c <crcu32>
    2e3c:	00050913          	mv	s2,a0
    2e40:	fc941ee3          	bne	s0,s1,2e1c <core_bench_state+0x13c>
    2e44:	07c12083          	lw	ra,124(sp)
    2e48:	07812403          	lw	s0,120(sp)
    2e4c:	07412483          	lw	s1,116(sp)
    2e50:	07012903          	lw	s2,112(sp)
    2e54:	06c12983          	lw	s3,108(sp)
    2e58:	06812a03          	lw	s4,104(sp)
    2e5c:	06412a83          	lw	s5,100(sp)
    2e60:	06012b03          	lw	s6,96(sp)
    2e64:	05c12b83          	lw	s7,92(sp)
    2e68:	05812c03          	lw	s8,88(sp)
    2e6c:	08010113          	addi	sp,sp,128
    2e70:	00008067          	ret
    2e74:	01840c33          	add	s8,s0,s8
    2e78:	f38460e3          	bltu	s0,s8,2d98 <core_bench_state+0xb8>
    2e7c:	f9dff06f          	j	2e18 <core_bench_state+0x138>

00002e80 <crt0>:
    2e80:	ff010113          	addi	sp,sp,-16
    2e84:	00112623          	sw	ra,12(sp)
    2e88:	000092b7          	lui	t0,0x9
    2e8c:	9422aa23          	sw	sp,-1708(t0) # 8954 <sp_store>
    2e90:	000092b7          	lui	t0,0x9
    2e94:	9142a103          	lw	sp,-1772(t0) # 8914 <stack_top>
    2e98:	9f0fe0ef          	jal	1088 <main>
    2e9c:	000092b7          	lui	t0,0x9
    2ea0:	9542a103          	lw	sp,-1708(t0) # 8954 <sp_store>
    2ea4:	00c12083          	lw	ra,12(sp)
    2ea8:	01010113          	addi	sp,sp,16
    2eac:	00008067          	ret

00002eb0 <getchar>:
    2eb0:	ff010113          	addi	sp,sp,-16
    2eb4:	00112623          	sw	ra,12(sp)
    2eb8:	008010ef          	jal	3ec0 <inbyte>
    2ebc:	00c12083          	lw	ra,12(sp)
    2ec0:	01010113          	addi	sp,sp,16
    2ec4:	00008067          	ret

00002ec8 <putchar>:
    2ec8:	ff010113          	addi	sp,sp,-16
    2ecc:	00812423          	sw	s0,8(sp)
    2ed0:	00050413          	mv	s0,a0
    2ed4:	0ff57513          	zext.b	a0,a0
    2ed8:	00112623          	sw	ra,12(sp)
    2edc:	008010ef          	jal	3ee4 <outbyte>
    2ee0:	00c12083          	lw	ra,12(sp)
    2ee4:	00040513          	mv	a0,s0
    2ee8:	00812403          	lw	s0,8(sp)
    2eec:	01010113          	addi	sp,sp,16
    2ef0:	00008067          	ret

00002ef4 <fputs>:
    2ef4:	000097b7          	lui	a5,0x9
    2ef8:	91c7a783          	lw	a5,-1764(a5) # 891c <stdout>
    2efc:	ff010113          	addi	sp,sp,-16
    2f00:	00112623          	sw	ra,12(sp)
    2f04:	02b78663          	beq	a5,a1,2f30 <fputs+0x3c>
    2f08:	00008537          	lui	a0,0x8
    2f0c:	00078593          	mv	a1,a5
    2f10:	57c50513          	addi	a0,a0,1404 # 857c <mem_name+0x57c>
    2f14:	fe1ff0ef          	jal	2ef4 <fputs>
    2f18:	00a00513          	li	a0,10
    2f1c:	7c9000ef          	jal	3ee4 <outbyte>
    2f20:	00c12083          	lw	ra,12(sp)
    2f24:	00a00513          	li	a0,10
    2f28:	01010113          	addi	sp,sp,16
    2f2c:	00008067          	ret
    2f30:	00812423          	sw	s0,8(sp)
    2f34:	00050413          	mv	s0,a0
    2f38:	00054503          	lbu	a0,0(a0)
    2f3c:	00050a63          	beqz	a0,2f50 <fputs+0x5c>
    2f40:	00140413          	addi	s0,s0,1
    2f44:	7a1000ef          	jal	3ee4 <outbyte>
    2f48:	00044503          	lbu	a0,0(s0)
    2f4c:	fe051ae3          	bnez	a0,2f40 <fputs+0x4c>
    2f50:	00a00513          	li	a0,10
    2f54:	00812403          	lw	s0,8(sp)
    2f58:	78d000ef          	jal	3ee4 <outbyte>
    2f5c:	00c12083          	lw	ra,12(sp)
    2f60:	00a00513          	li	a0,10
    2f64:	01010113          	addi	sp,sp,16
    2f68:	00008067          	ret

00002f6c <fgets>:
    2f6c:	000097b7          	lui	a5,0x9
    2f70:	9207a783          	lw	a5,-1760(a5) # 8920 <stdin>
    2f74:	fe010113          	addi	sp,sp,-32
    2f78:	00112e23          	sw	ra,28(sp)
    2f7c:	08c79063          	bne	a5,a2,2ffc <fgets+0x90>
    2f80:	00812c23          	sw	s0,24(sp)
    2f84:	00912a23          	sw	s1,20(sp)
    2f88:	01212823          	sw	s2,16(sp)
    2f8c:	01312623          	sw	s3,12(sp)
    2f90:	01412423          	sw	s4,8(sp)
    2f94:	00050493          	mv	s1,a0
    2f98:	00050413          	mv	s0,a0
    2f9c:	00a00913          	li	s2,10
    2fa0:	00d00993          	li	s3,13
    2fa4:	00b50a33          	add	s4,a0,a1
    2fa8:	00059c63          	bnez	a1,2fc0 <fgets+0x54>
    2fac:	0200006f          	j	2fcc <fgets+0x60>
    2fb0:	01350e63          	beq	a0,s3,2fcc <fgets+0x60>
    2fb4:	00140413          	addi	s0,s0,1
    2fb8:	72d000ef          	jal	3ee4 <outbyte>
    2fbc:	01440863          	beq	s0,s4,2fcc <fgets+0x60>
    2fc0:	701000ef          	jal	3ec0 <inbyte>
    2fc4:	00a40023          	sb	a0,0(s0)
    2fc8:	ff2514e3          	bne	a0,s2,2fb0 <fgets+0x44>
    2fcc:	00a00513          	li	a0,10
    2fd0:	715000ef          	jal	3ee4 <outbyte>
    2fd4:	00040023          	sb	zero,0(s0)
    2fd8:	01812403          	lw	s0,24(sp)
    2fdc:	01c12083          	lw	ra,28(sp)
    2fe0:	01012903          	lw	s2,16(sp)
    2fe4:	00c12983          	lw	s3,12(sp)
    2fe8:	00812a03          	lw	s4,8(sp)
    2fec:	00048513          	mv	a0,s1
    2ff0:	01412483          	lw	s1,20(sp)
    2ff4:	02010113          	addi	sp,sp,32
    2ff8:	00008067          	ret
    2ffc:	000097b7          	lui	a5,0x9
    3000:	91c7a583          	lw	a1,-1764(a5) # 891c <stdout>
    3004:	00008537          	lui	a0,0x8
    3008:	5a850513          	addi	a0,a0,1448 # 85a8 <mem_name+0x5a8>
    300c:	ee9ff0ef          	jal	2ef4 <fputs>
    3010:	01c12083          	lw	ra,28(sp)
    3014:	00000513          	li	a0,0
    3018:	02010113          	addi	sp,sp,32
    301c:	00008067          	ret

00003020 <putd>:
    3020:	fd010113          	addi	sp,sp,-48
    3024:	00d037b3          	snez	a5,a3
    3028:	3b9ad737          	lui	a4,0x3b9ad
    302c:	02912223          	sw	s1,36(sp)
    3030:	03212023          	sw	s2,32(sp)
    3034:	01312e23          	sw	s3,28(sp)
    3038:	02112623          	sw	ra,44(sp)
    303c:	02812423          	sw	s0,40(sp)
    3040:	00068913          	mv	s2,a3
    3044:	40f585b3          	sub	a1,a1,a5
    3048:	00a00813          	li	a6,10
    304c:	00000493          	li	s1,0
    3050:	00100993          	li	s3,1
    3054:	a0070713          	addi	a4,a4,-1536 # 3b9aca00 <__stack_top+0x3b9a00a0>
    3058:	00a00893          	li	a7,10
    305c:	0300006f          	j	308c <putd+0x6c>
    3060:	02f576b3          	remu	a3,a0,a5
    3064:	00000993          	li	s3,0
    3068:	02f557b3          	divu	a5,a0,a5
    306c:	00068513          	mv	a0,a3
    3070:	01048693          	addi	a3,s1,16
    3074:	002686b3          	add	a3,a3,sp
    3078:	00148493          	addi	s1,s1,1
    307c:	03078793          	addi	a5,a5,48
    3080:	fef68823          	sb	a5,-16(a3)
    3084:	fff80813          	addi	a6,a6,-1
    3088:	00080e63          	beqz	a6,30a4 <putd+0x84>
    308c:	00070793          	mv	a5,a4
    3090:	03175733          	divu	a4,a4,a7
    3094:	fcf576e3          	bgeu	a0,a5,3060 <putd+0x40>
    3098:	fe0996e3          	bnez	s3,3084 <putd+0x64>
    309c:	00050693          	mv	a3,a0
    30a0:	fc5ff06f          	j	3064 <putd+0x44>
    30a4:	08099c63          	bnez	s3,313c <putd+0x11c>
    30a8:	00014783          	lbu	a5,0(sp)
    30ac:	00048993          	mv	s3,s1
    30b0:	00f10023          	sb	a5,0(sp)
    30b4:	01048793          	addi	a5,s1,16
    30b8:	002787b3          	add	a5,a5,sp
    30bc:	fe078823          	sb	zero,-16(a5)
    30c0:	fff58413          	addi	s0,a1,-1
    30c4:	04060a63          	beqz	a2,3118 <putd+0xf8>
    30c8:	08091063          	bnez	s2,3148 <putd+0x128>
    30cc:	00944a63          	blt	s0,s1,30e0 <putd+0xc0>
    30d0:	03000513          	li	a0,48
    30d4:	fff40413          	addi	s0,s0,-1
    30d8:	60d000ef          	jal	3ee4 <outbyte>
    30dc:	fe945ae3          	bge	s0,s1,30d0 <putd+0xb0>
    30e0:	00010413          	mv	s0,sp
    30e4:	008984b3          	add	s1,s3,s0
    30e8:	00098a63          	beqz	s3,30fc <putd+0xdc>
    30ec:	00044503          	lbu	a0,0(s0)
    30f0:	00140413          	addi	s0,s0,1
    30f4:	5f1000ef          	jal	3ee4 <outbyte>
    30f8:	fe941ae3          	bne	s0,s1,30ec <putd+0xcc>
    30fc:	02c12083          	lw	ra,44(sp)
    3100:	02812403          	lw	s0,40(sp)
    3104:	02412483          	lw	s1,36(sp)
    3108:	02012903          	lw	s2,32(sp)
    310c:	01c12983          	lw	s3,28(sp)
    3110:	03010113          	addi	sp,sp,48
    3114:	00008067          	ret
    3118:	00944a63          	blt	s0,s1,312c <putd+0x10c>
    311c:	02000513          	li	a0,32
    3120:	fff40413          	addi	s0,s0,-1
    3124:	5c1000ef          	jal	3ee4 <outbyte>
    3128:	fe945ae3          	bge	s0,s1,311c <putd+0xfc>
    312c:	fa090ae3          	beqz	s2,30e0 <putd+0xc0>
    3130:	02d00513          	li	a0,45
    3134:	5b1000ef          	jal	3ee4 <outbyte>
    3138:	fa9ff06f          	j	30e0 <putd+0xc0>
    313c:	03000793          	li	a5,48
    3140:	00100493          	li	s1,1
    3144:	f6dff06f          	j	30b0 <putd+0x90>
    3148:	02d00513          	li	a0,45
    314c:	599000ef          	jal	3ee4 <outbyte>
    3150:	f89450e3          	bge	s0,s1,30d0 <putd+0xb0>
    3154:	f8dff06f          	j	30e0 <putd+0xc0>

00003158 <putx>:
    3158:	01f6d793          	srli	a5,a3,0x1f
    315c:	00f68833          	add	a6,a3,a5
    3160:	00187813          	andi	a6,a6,1
    3164:	40f80833          	sub	a6,a6,a5
    3168:	000087b7          	lui	a5,0x8
    316c:	fd010113          	addi	sp,sp,-48
    3170:	5d478793          	addi	a5,a5,1492 # 85d4 <mem_name+0x5d4>
    3174:	00281813          	slli	a6,a6,0x2
    3178:	00f12623          	sw	a5,12(sp)
    317c:	000087b7          	lui	a5,0x8
    3180:	5e878793          	addi	a5,a5,1512 # 85e8 <mem_name+0x5e8>
    3184:	02080713          	addi	a4,a6,32
    3188:	02812423          	sw	s0,40(sp)
    318c:	00f12823          	sw	a5,16(sp)
    3190:	02112623          	sw	ra,44(sp)
    3194:	02912223          	sw	s1,36(sp)
    3198:	01c00793          	li	a5,28
    319c:	00000413          	li	s0,0
    31a0:	00100e93          	li	t4,1
    31a4:	00270833          	add	a6,a4,sp
    31a8:	02000e13          	li	t3,32
    31ac:	ffc00313          	li	t1,-4
    31b0:	0300006f          	j	31e0 <putx+0x88>
    31b4:	00e8d533          	srl	a0,a7,a4
    31b8:	00000e93          	li	t4,0
    31bc:	fec82703          	lw	a4,-20(a6)
    31c0:	ffc78793          	addi	a5,a5,-4
    31c4:	00d70733          	add	a4,a4,a3
    31c8:	00074683          	lbu	a3,0(a4)
    31cc:	02040713          	addi	a4,s0,32
    31d0:	00270733          	add	a4,a4,sp
    31d4:	fed70a23          	sb	a3,-12(a4)
    31d8:	00140413          	addi	s0,s0,1
    31dc:	02678263          	beq	a5,t1,3200 <putx+0xa8>
    31e0:	40fe0733          	sub	a4,t3,a5
    31e4:	00f556b3          	srl	a3,a0,a5
    31e8:	00e518b3          	sll	a7,a0,a4
    31ec:	fc0694e3          	bnez	a3,31b4 <putx+0x5c>
    31f0:	fc0e86e3          	beqz	t4,31bc <putx+0x64>
    31f4:	fc0614e3          	bnez	a2,31bc <putx+0x64>
    31f8:	ffc78793          	addi	a5,a5,-4
    31fc:	fe6792e3          	bne	a5,t1,31e0 <putx+0x88>
    3200:	02040793          	addi	a5,s0,32
    3204:	002787b3          	add	a5,a5,sp
    3208:	fe078a23          	sb	zero,-12(a5)
    320c:	fff58493          	addi	s1,a1,-1
    3210:	0084cc63          	blt	s1,s0,3228 <putx+0xd0>
    3214:	04060263          	beqz	a2,3258 <putx+0x100>
    3218:	03000513          	li	a0,48
    321c:	fff48493          	addi	s1,s1,-1
    3220:	4c5000ef          	jal	3ee4 <outbyte>
    3224:	fe84dae3          	bge	s1,s0,3218 <putx+0xc0>
    3228:	00805e63          	blez	s0,3244 <putx+0xec>
    322c:	01410493          	addi	s1,sp,20
    3230:	00940433          	add	s0,s0,s1
    3234:	0004c503          	lbu	a0,0(s1)
    3238:	00148493          	addi	s1,s1,1
    323c:	4a9000ef          	jal	3ee4 <outbyte>
    3240:	fe941ae3          	bne	s0,s1,3234 <putx+0xdc>
    3244:	02c12083          	lw	ra,44(sp)
    3248:	02812403          	lw	s0,40(sp)
    324c:	02412483          	lw	s1,36(sp)
    3250:	03010113          	addi	sp,sp,48
    3254:	00008067          	ret
    3258:	02000513          	li	a0,32
    325c:	fff48493          	addi	s1,s1,-1
    3260:	485000ef          	jal	3ee4 <outbyte>
    3264:	fc84c2e3          	blt	s1,s0,3228 <putx+0xd0>
    3268:	02000513          	li	a0,32
    326c:	fff48493          	addi	s1,s1,-1
    3270:	475000ef          	jal	3ee4 <outbyte>
    3274:	fe84d2e3          	bge	s1,s0,3258 <putx+0x100>
    3278:	fb1ff06f          	j	3228 <putx+0xd0>

0000327c <putld>:
    327c:	f9010113          	addi	sp,sp,-112
    3280:	06812423          	sw	s0,104(sp)
    3284:	07212023          	sw	s2,96(sp)
    3288:	05612823          	sw	s6,80(sp)
    328c:	03b12e23          	sw	s11,60(sp)
    3290:	06112623          	sw	ra,108(sp)
    3294:	06912223          	sw	s1,100(sp)
    3298:	05312e23          	sw	s3,92(sp)
    329c:	05412c23          	sw	s4,88(sp)
    32a0:	05512a23          	sw	s5,84(sp)
    32a4:	05712623          	sw	s7,76(sp)
    32a8:	05812423          	sw	s8,72(sp)
    32ac:	05912223          	sw	s9,68(sp)
    32b0:	05a12023          	sw	s10,64(sp)
    32b4:	00d12623          	sw	a3,12(sp)
    32b8:	00050d93          	mv	s11,a0
    32bc:	00058413          	mv	s0,a1
    32c0:	00060913          	mv	s2,a2
    32c4:	00000b13          	li	s6,0
    32c8:	00071663          	bnez	a4,32d4 <putld+0x58>
    32cc:	00070b13          	mv	s6,a4
    32d0:	1e05c063          	bltz	a1,34b0 <putld+0x234>
    32d4:	01634c37          	lui	s8,0x1634
    32d8:	ccccdcb7          	lui	s9,0xccccd
    32dc:	ccccd9b7          	lui	s3,0xccccd
    32e0:	01200d13          	li	s10,18
    32e4:	00000493          	li	s1,0
    32e8:	00100a13          	li	s4,1
    32ec:	5d8a0bb7          	lui	s7,0x5d8a0
    32f0:	578c0c13          	addi	s8,s8,1400 # 1634578 <__stack_top+0x1627c18>
    32f4:	00500a93          	li	s5,5
    32f8:	ccdc8c93          	addi	s9,s9,-819 # cccccccd <__stack_top+0xcccc036d>
    32fc:	ccc98993          	addi	s3,s3,-820 # cccccccc <__stack_top+0xcccc036c>
    3300:	04c0006f          	j	334c <putld+0xd0>
    3304:	02a687b3          	mul	a5,a3,a0
    3308:	02a70733          	mul	a4,a4,a0
    330c:	40fd87b3          	sub	a5,s11,a5
    3310:	00fdb5b3          	sltu	a1,s11,a5
    3314:	00078d93          	mv	s11,a5
    3318:	02d536b3          	mulhu	a3,a0,a3
    331c:	00d70733          	add	a4,a4,a3
    3320:	40e40733          	sub	a4,s0,a4
    3324:	40b70433          	sub	s0,a4,a1
    3328:	02048793          	addi	a5,s1,32
    332c:	01010713          	addi	a4,sp,16
    3330:	00e787b3          	add	a5,a5,a4
    3334:	03050513          	addi	a0,a0,48
    3338:	fea78423          	sb	a0,-24(a5)
    333c:	fffd0d13          	addi	s10,s10,-1
    3340:	00148493          	addi	s1,s1,1
    3344:	00000a13          	li	s4,0
    3348:	060d0a63          	beqz	s10,33bc <putld+0x140>
    334c:	000b8613          	mv	a2,s7
    3350:	000c0693          	mv	a3,s8
    3354:	000d8513          	mv	a0,s11
    3358:	00040593          	mv	a1,s0
    335c:	3d5000ef          	jal	3f30 <__udivdi3>
    3360:	018b87b3          	add	a5,s7,s8
    3364:	0177b733          	sltu	a4,a5,s7
    3368:	00e787b3          	add	a5,a5,a4
    336c:	0357f7b3          	remu	a5,a5,s5
    3370:	000c0713          	mv	a4,s8
    3374:	000b8693          	mv	a3,s7
    3378:	40fb87b3          	sub	a5,s7,a5
    337c:	00fbbc33          	sltu	s8,s7,a5
    3380:	41870c33          	sub	s8,a4,s8
    3384:	033785b3          	mul	a1,a5,s3
    3388:	039c0c33          	mul	s8,s8,s9
    338c:	0397b633          	mulhu	a2,a5,s9
    3390:	00bc0c33          	add	s8,s8,a1
    3394:	039787b3          	mul	a5,a5,s9
    3398:	00cc0c33          	add	s8,s8,a2
    339c:	01fc1613          	slli	a2,s8,0x1f
    33a0:	001c5c13          	srli	s8,s8,0x1
    33a4:	0017d793          	srli	a5,a5,0x1
    33a8:	00f66bb3          	or	s7,a2,a5
    33ac:	f4051ce3          	bnez	a0,3304 <putld+0x88>
    33b0:	f60a0ce3          	beqz	s4,3328 <putld+0xac>
    33b4:	fffd0d13          	addi	s10,s10,-1
    33b8:	f80d1ae3          	bnez	s10,334c <putld+0xd0>
    33bc:	0e0a1063          	bnez	s4,349c <putld+0x220>
    33c0:	01814783          	lbu	a5,24(sp)
    33c4:	00048993          	mv	s3,s1
    33c8:	41f4da13          	srai	s4,s1,0x1f
    33cc:	00f10c23          	sb	a5,24(sp)
    33d0:	01010713          	addi	a4,sp,16
    33d4:	02048793          	addi	a5,s1,32
    33d8:	00e787b3          	add	a5,a5,a4
    33dc:	fe078423          	sb	zero,-24(a5)
    33e0:	00c12783          	lw	a5,12(sp)
    33e4:	fff90913          	addi	s2,s2,-1
    33e8:	08078863          	beqz	a5,3478 <putld+0x1fc>
    33ec:	0e0b1063          	bnez	s6,34cc <putld+0x250>
    33f0:	00994a63          	blt	s2,s1,3404 <putld+0x188>
    33f4:	03000513          	li	a0,48
    33f8:	fff90913          	addi	s2,s2,-1
    33fc:	2e9000ef          	jal	3ee4 <outbyte>
    3400:	fe995ae3          	bge	s2,s1,33f4 <putld+0x178>
    3404:	0149e7b3          	or	a5,s3,s4
    3408:	01810493          	addi	s1,sp,24
    340c:	00000413          	li	s0,0
    3410:	00000913          	li	s2,0
    3414:	02078463          	beqz	a5,343c <putld+0x1c0>
    3418:	0004c503          	lbu	a0,0(s1)
    341c:	00148493          	addi	s1,s1,1
    3420:	2c5000ef          	jal	3ee4 <outbyte>
    3424:	00140793          	addi	a5,s0,1
    3428:	0087b733          	sltu	a4,a5,s0
    342c:	01270933          	add	s2,a4,s2
    3430:	00078413          	mv	s0,a5
    3434:	fef992e3          	bne	s3,a5,3418 <putld+0x19c>
    3438:	ff2a10e3          	bne	s4,s2,3418 <putld+0x19c>
    343c:	06c12083          	lw	ra,108(sp)
    3440:	06812403          	lw	s0,104(sp)
    3444:	06412483          	lw	s1,100(sp)
    3448:	06012903          	lw	s2,96(sp)
    344c:	05c12983          	lw	s3,92(sp)
    3450:	05812a03          	lw	s4,88(sp)
    3454:	05412a83          	lw	s5,84(sp)
    3458:	05012b03          	lw	s6,80(sp)
    345c:	04c12b83          	lw	s7,76(sp)
    3460:	04812c03          	lw	s8,72(sp)
    3464:	04412c83          	lw	s9,68(sp)
    3468:	04012d03          	lw	s10,64(sp)
    346c:	03c12d83          	lw	s11,60(sp)
    3470:	07010113          	addi	sp,sp,112
    3474:	00008067          	ret
    3478:	00994a63          	blt	s2,s1,348c <putld+0x210>
    347c:	02000513          	li	a0,32
    3480:	fff90913          	addi	s2,s2,-1
    3484:	261000ef          	jal	3ee4 <outbyte>
    3488:	fe995ae3          	bge	s2,s1,347c <putld+0x200>
    348c:	f60b0ce3          	beqz	s6,3404 <putld+0x188>
    3490:	02d00513          	li	a0,45
    3494:	251000ef          	jal	3ee4 <outbyte>
    3498:	f6dff06f          	j	3404 <putld+0x188>
    349c:	00100993          	li	s3,1
    34a0:	00000a13          	li	s4,0
    34a4:	03000793          	li	a5,48
    34a8:	00100493          	li	s1,1
    34ac:	f21ff06f          	j	33cc <putld+0x150>
    34b0:	00a037b3          	snez	a5,a0
    34b4:	40b00433          	neg	s0,a1
    34b8:	fff60913          	addi	s2,a2,-1
    34bc:	40f40433          	sub	s0,s0,a5
    34c0:	40a00db3          	neg	s11,a0
    34c4:	00100b13          	li	s6,1
    34c8:	e0dff06f          	j	32d4 <putld+0x58>
    34cc:	02d00513          	li	a0,45
    34d0:	215000ef          	jal	3ee4 <outbyte>
    34d4:	f29950e3          	bge	s2,s1,33f4 <putld+0x178>
    34d8:	f2dff06f          	j	3404 <putld+0x188>

000034dc <putf>:
    34dc:	fc010113          	addi	sp,sp,-64
    34e0:	03612023          	sw	s6,32(sp)
    34e4:	01712e23          	sw	s7,28(sp)
    34e8:	01812c23          	sw	s8,24(sp)
    34ec:	01912a23          	sw	s9,20(sp)
    34f0:	01a12823          	sw	s10,16(sp)
    34f4:	02112e23          	sw	ra,60(sp)
    34f8:	02812c23          	sw	s0,56(sp)
    34fc:	02912a23          	sw	s1,52(sp)
    3500:	03212823          	sw	s2,48(sp)
    3504:	03312623          	sw	s3,44(sp)
    3508:	03412423          	sw	s4,40(sp)
    350c:	00070b13          	mv	s6,a4
    3510:	00050c93          	mv	s9,a0
    3514:	00058c13          	mv	s8,a1
    3518:	00060b93          	mv	s7,a2
    351c:	00068d13          	mv	s10,a3
    3520:	14e05e63          	blez	a4,367c <putf+0x1a0>
    3524:	000097b7          	lui	a5,0x9
    3528:	00009737          	lui	a4,0x9
    352c:	8f07a983          	lw	s3,-1808(a5) # 88f0 <__clz_tab+0x110>
    3530:	8f47a903          	lw	s2,-1804(a5)
    3534:	000097b7          	lui	a5,0x9
    3538:	03512223          	sw	s5,36(sp)
    353c:	8e072483          	lw	s1,-1824(a4) # 88e0 <__clz_tab+0x100>
    3540:	8e472403          	lw	s0,-1820(a4)
    3544:	8f87aa03          	lw	s4,-1800(a5) # 88f8 <__clz_tab+0x118>
    3548:	8fc7aa83          	lw	s5,-1796(a5)
    354c:	01b12623          	sw	s11,12(sp)
    3550:	00000d93          	li	s11,0
    3554:	00098513          	mv	a0,s3
    3558:	00090593          	mv	a1,s2
    355c:	000a0613          	mv	a2,s4
    3560:	000a8693          	mv	a3,s5
    3564:	590010ef          	jal	4af4 <__divdf3>
    3568:	00050993          	mv	s3,a0
    356c:	00058913          	mv	s2,a1
    3570:	00048513          	mv	a0,s1
    3574:	00040593          	mv	a1,s0
    3578:	000a0613          	mv	a2,s4
    357c:	000a8693          	mv	a3,s5
    3580:	609010ef          	jal	5388 <__muldf3>
    3584:	001d8d93          	addi	s11,s11,1
    3588:	00050493          	mv	s1,a0
    358c:	00058413          	mv	s0,a1
    3590:	fdbb12e3          	bne	s6,s11,3554 <putf+0x78>
    3594:	02412a83          	lw	s5,36(sp)
    3598:	00c12d83          	lw	s11,12(sp)
    359c:	000c8513          	mv	a0,s9
    35a0:	000c0593          	mv	a1,s8
    35a4:	00000613          	li	a2,0
    35a8:	00000693          	li	a3,0
    35ac:	501010ef          	jal	52ac <__ledf2>
    35b0:	00000a13          	li	s4,0
    35b4:	00055863          	bgez	a0,35c4 <putf+0xe8>
    35b8:	800007b7          	lui	a5,0x80000
    35bc:	0187cc33          	xor	s8,a5,s8
    35c0:	00100a13          	li	s4,1
    35c4:	00098613          	mv	a2,s3
    35c8:	00090693          	mv	a3,s2
    35cc:	000c8513          	mv	a0,s9
    35d0:	000c0593          	mv	a1,s8
    35d4:	58d000ef          	jal	4360 <__adddf3>
    35d8:	00058913          	mv	s2,a1
    35dc:	00050993          	mv	s3,a0
    35e0:	416b8bb3          	sub	s7,s7,s6
    35e4:	33d020ef          	jal	6120 <__fixunsdfsi>
    35e8:	417005b3          	neg	a1,s7
    35ec:	41f5d593          	srai	a1,a1,0x1f
    35f0:	fffb8b93          	addi	s7,s7,-1 # 5d89ffff <__stack_top+0x5d89369f>
    35f4:	000a0693          	mv	a3,s4
    35f8:	000d0613          	mv	a2,s10
    35fc:	00bbf5b3          	and	a1,s7,a1
    3600:	00050a13          	mv	s4,a0
    3604:	a1dff0ef          	jal	3020 <putd>
    3608:	02e00513          	li	a0,46
    360c:	0d9000ef          	jal	3ee4 <outbyte>
    3610:	000a0513          	mv	a0,s4
    3614:	389020ef          	jal	619c <__floatunsidf>
    3618:	00050613          	mv	a2,a0
    361c:	00058693          	mv	a3,a1
    3620:	00098513          	mv	a0,s3
    3624:	00090593          	mv	a1,s2
    3628:	350020ef          	jal	5978 <__subdf3>
    362c:	00048613          	mv	a2,s1
    3630:	00040693          	mv	a3,s0
    3634:	555010ef          	jal	5388 <__muldf3>
    3638:	3e5020ef          	jal	621c <__fixunsdfdi>
    363c:	03812403          	lw	s0,56(sp)
    3640:	03c12083          	lw	ra,60(sp)
    3644:	03412483          	lw	s1,52(sp)
    3648:	03012903          	lw	s2,48(sp)
    364c:	02c12983          	lw	s3,44(sp)
    3650:	02812a03          	lw	s4,40(sp)
    3654:	01c12b83          	lw	s7,28(sp)
    3658:	01812c03          	lw	s8,24(sp)
    365c:	01412c83          	lw	s9,20(sp)
    3660:	01012d03          	lw	s10,16(sp)
    3664:	000b0613          	mv	a2,s6
    3668:	02012b03          	lw	s6,32(sp)
    366c:	00100713          	li	a4,1
    3670:	00100693          	li	a3,1
    3674:	04010113          	addi	sp,sp,64
    3678:	c05ff06f          	j	327c <putld>
    367c:	00009737          	lui	a4,0x9
    3680:	000097b7          	lui	a5,0x9
    3684:	8e072483          	lw	s1,-1824(a4) # 88e0 <__clz_tab+0x100>
    3688:	8e472403          	lw	s0,-1820(a4)
    368c:	8f07a983          	lw	s3,-1808(a5) # 88f0 <__clz_tab+0x110>
    3690:	8f47a903          	lw	s2,-1804(a5)
    3694:	f09ff06f          	j	359c <putf+0xc0>

00003698 <printf>:
    3698:	fa010113          	addi	sp,sp,-96
    369c:	02812c23          	sw	s0,56(sp)
    36a0:	04f12a23          	sw	a5,84(sp)
    36a4:	02112e23          	sw	ra,60(sp)
    36a8:	04b12223          	sw	a1,68(sp)
    36ac:	04c12423          	sw	a2,72(sp)
    36b0:	04d12623          	sw	a3,76(sp)
    36b4:	04e12823          	sw	a4,80(sp)
    36b8:	05012c23          	sw	a6,88(sp)
    36bc:	05112e23          	sw	a7,92(sp)
    36c0:	00050413          	mv	s0,a0
    36c4:	00054503          	lbu	a0,0(a0)
    36c8:	04410793          	addi	a5,sp,68
    36cc:	00f12623          	sw	a5,12(sp)
    36d0:	06050263          	beqz	a0,3734 <printf+0x9c>
    36d4:	03312623          	sw	s3,44(sp)
    36d8:	000089b7          	lui	s3,0x8
    36dc:	02912a23          	sw	s1,52(sp)
    36e0:	03212823          	sw	s2,48(sp)
    36e4:	03412423          	sw	s4,40(sp)
    36e8:	03512223          	sw	s5,36(sp)
    36ec:	03612023          	sw	s6,32(sp)
    36f0:	00600493          	li	s1,6
    36f4:	02500913          	li	s2,37
    36f8:	00900b13          	li	s6,9
    36fc:	02e00a93          	li	s5,46
    3700:	02000a13          	li	s4,32
    3704:	67898993          	addi	s3,s3,1656 # 8678 <errpat+0x10>
    3708:	05250063          	beq	a0,s2,3748 <printf+0xb0>
    370c:	7d8000ef          	jal	3ee4 <outbyte>
    3710:	00144503          	lbu	a0,1(s0)
    3714:	00140413          	addi	s0,s0,1
    3718:	fe0518e3          	bnez	a0,3708 <printf+0x70>
    371c:	03412483          	lw	s1,52(sp)
    3720:	03012903          	lw	s2,48(sp)
    3724:	02c12983          	lw	s3,44(sp)
    3728:	02812a03          	lw	s4,40(sp)
    372c:	02412a83          	lw	s5,36(sp)
    3730:	02012b03          	lw	s6,32(sp)
    3734:	03c12083          	lw	ra,60(sp)
    3738:	03812403          	lw	s0,56(sp)
    373c:	00000513          	li	a0,0
    3740:	06010113          	addi	sp,sp,96
    3744:	00008067          	ret
    3748:	00144703          	lbu	a4,1(s0)
    374c:	00000813          	li	a6,0
    3750:	00140413          	addi	s0,s0,1
    3754:	fd070793          	addi	a5,a4,-48
    3758:	0ff7f693          	zext.b	a3,a5
    375c:	0017b613          	seqz	a2,a5
    3760:	02db6463          	bltu	s6,a3,3788 <printf+0xf0>
    3764:	00144703          	lbu	a4,1(s0)
    3768:	00281593          	slli	a1,a6,0x2
    376c:	010585b3          	add	a1,a1,a6
    3770:	00159593          	slli	a1,a1,0x1
    3774:	00b78833          	add	a6,a5,a1
    3778:	fd070793          	addi	a5,a4,-48
    377c:	0ff7f693          	zext.b	a3,a5
    3780:	00140413          	addi	s0,s0,1
    3784:	fedb70e3          	bgeu	s6,a3,3764 <printf+0xcc>
    3788:	f9470713          	addi	a4,a4,-108
    378c:	00173713          	seqz	a4,a4
    3790:	00e40433          	add	s0,s0,a4
    3794:	00044503          	lbu	a0,0(s0)
    3798:	0f550e63          	beq	a0,s5,3894 <printf+0x1fc>
    379c:	fa850793          	addi	a5,a0,-88
    37a0:	0ff7f793          	zext.b	a5,a5
    37a4:	f6fa64e3          	bltu	s4,a5,370c <printf+0x74>
    37a8:	00279793          	slli	a5,a5,0x2
    37ac:	013787b3          	add	a5,a5,s3
    37b0:	0007a783          	lw	a5,0(a5)
    37b4:	00078067          	jr	a5
    37b8:	00c12783          	lw	a5,12(sp)
    37bc:	00000693          	li	a3,0
    37c0:	0007a503          	lw	a0,0(a5)
    37c4:	00080593          	mv	a1,a6
    37c8:	00478793          	addi	a5,a5,4
    37cc:	00f12623          	sw	a5,12(sp)
    37d0:	989ff0ef          	jal	3158 <putx>
    37d4:	f3dff06f          	j	3710 <printf+0x78>
    37d8:	00c12783          	lw	a5,12(sp)
    37dc:	00000693          	li	a3,0
    37e0:	00080593          	mv	a1,a6
    37e4:	0007a503          	lw	a0,0(a5)
    37e8:	00478793          	addi	a5,a5,4
    37ec:	00f12623          	sw	a5,12(sp)
    37f0:	831ff0ef          	jal	3020 <putd>
    37f4:	f1dff06f          	j	3710 <printf+0x78>
    37f8:	00c12783          	lw	a5,12(sp)
    37fc:	01712e23          	sw	s7,28(sp)
    3800:	0007ab83          	lw	s7,0(a5)
    3804:	00478793          	addi	a5,a5,4
    3808:	00f12623          	sw	a5,12(sp)
    380c:	000bc503          	lbu	a0,0(s7)
    3810:	00050a63          	beqz	a0,3824 <printf+0x18c>
    3814:	001b8b93          	addi	s7,s7,1
    3818:	6cc000ef          	jal	3ee4 <outbyte>
    381c:	000bc503          	lbu	a0,0(s7)
    3820:	fe051ae3          	bnez	a0,3814 <printf+0x17c>
    3824:	01c12b83          	lw	s7,28(sp)
    3828:	ee9ff06f          	j	3710 <printf+0x78>
    382c:	00c12783          	lw	a5,12(sp)
    3830:	00060693          	mv	a3,a2
    3834:	00048713          	mv	a4,s1
    3838:	00778793          	addi	a5,a5,7
    383c:	ff87f793          	andi	a5,a5,-8
    3840:	0007a503          	lw	a0,0(a5)
    3844:	0047a583          	lw	a1,4(a5)
    3848:	00080613          	mv	a2,a6
    384c:	00878793          	addi	a5,a5,8
    3850:	00f12623          	sw	a5,12(sp)
    3854:	c89ff0ef          	jal	34dc <putf>
    3858:	eb9ff06f          	j	3710 <printf+0x78>
    385c:	00c12783          	lw	a5,12(sp)
    3860:	00080593          	mv	a1,a6
    3864:	0007a683          	lw	a3,0(a5)
    3868:	00478793          	addi	a5,a5,4
    386c:	00f12623          	sw	a5,12(sp)
    3870:	41f6d793          	srai	a5,a3,0x1f
    3874:	00d7c533          	xor	a0,a5,a3
    3878:	40f50533          	sub	a0,a0,a5
    387c:	01f6d693          	srli	a3,a3,0x1f
    3880:	fa0ff0ef          	jal	3020 <putd>
    3884:	e8dff06f          	j	3710 <printf+0x78>
    3888:	00c12783          	lw	a5,12(sp)
    388c:	00100693          	li	a3,1
    3890:	f31ff06f          	j	37c0 <printf+0x128>
    3894:	00144503          	lbu	a0,1(s0)
    3898:	00900793          	li	a5,9
    389c:	00140413          	addi	s0,s0,1
    38a0:	fd050713          	addi	a4,a0,-48
    38a4:	0ff77693          	zext.b	a3,a4
    38a8:	00000493          	li	s1,0
    38ac:	eed7e8e3          	bltu	a5,a3,379c <printf+0x104>
    38b0:	00900693          	li	a3,9
    38b4:	00144503          	lbu	a0,1(s0)
    38b8:	00249793          	slli	a5,s1,0x2
    38bc:	009787b3          	add	a5,a5,s1
    38c0:	00179793          	slli	a5,a5,0x1
    38c4:	00f704b3          	add	s1,a4,a5
    38c8:	fd050713          	addi	a4,a0,-48
    38cc:	0ff77793          	zext.b	a5,a4
    38d0:	00140413          	addi	s0,s0,1
    38d4:	fef6f0e3          	bgeu	a3,a5,38b4 <printf+0x21c>
    38d8:	ec5ff06f          	j	379c <printf+0x104>

000038dc <exit>:
    38dc:	fe010113          	addi	sp,sp,-32
    38e0:	00112e23          	sw	ra,28(sp)
    38e4:	00812c23          	sw	s0,24(sp)
    38e8:	02010413          	addi	s0,sp,32
    38ec:	fea42623          	sw	a0,-20(s0)
    38f0:	000087b7          	lui	a5,0x8
    38f4:	6fc78513          	addi	a0,a5,1788 # 86fc <errpat+0x94>
    38f8:	da1ff0ef          	jal	3698 <printf>
    38fc:	fec42583          	lw	a1,-20(s0)
    3900:	000087b7          	lui	a5,0x8
    3904:	74878513          	addi	a0,a5,1864 # 8748 <errpat+0xe0>
    3908:	d91ff0ef          	jal	3698 <printf>
    390c:	000087b7          	lui	a5,0x8
    3910:	76c78513          	addi	a0,a5,1900 # 876c <errpat+0x104>
    3914:	d85ff0ef          	jal	3698 <printf>
    3918:	00300513          	li	a0,3
    391c:	dacff0ef          	jal	2ec8 <putchar>
    3920:	00000013          	nop
    3924:	ffdff06f          	j	3920 <exit+0x44>

00003928 <malloc>:
    3928:	000098b7          	lui	a7,0x9
    392c:	00009737          	lui	a4,0x9
    3930:	93c8a783          	lw	a5,-1732(a7) # 893c <curr_top>
    3934:	93872583          	lw	a1,-1736(a4) # 8938 <heap_end>
    3938:	00050813          	mv	a6,a0
    393c:	08b78c63          	beq	a5,a1,39d4 <malloc+0xac>
    3940:	02b7f263          	bgeu	a5,a1,3964 <malloc+0x3c>
    3944:	0007a703          	lw	a4,0(a5)
    3948:	00177693          	andi	a3,a4,1
    394c:	40f70633          	sub	a2,a4,a5
    3950:	00069463          	bnez	a3,3958 <malloc+0x30>
    3954:	04c86063          	bltu	a6,a2,3994 <malloc+0x6c>
    3958:	ffe77793          	andi	a5,a4,-2
    395c:	feb7e4e3          	bltu	a5,a1,3944 <malloc+0x1c>
    3960:	93c8a783          	lw	a5,-1732(a7)
    3964:	00009737          	lui	a4,0x9
    3968:	90472703          	lw	a4,-1788(a4) # 8904 <heap_top>
    396c:	02f77063          	bgeu	a4,a5,398c <malloc+0x64>
    3970:	00072683          	lw	a3,0(a4)
    3974:	0016f613          	andi	a2,a3,1
    3978:	40e685b3          	sub	a1,a3,a4
    397c:	00061463          	bnez	a2,3984 <malloc+0x5c>
    3980:	08b86863          	bltu	a6,a1,3a10 <malloc+0xe8>
    3984:	ffe6f713          	andi	a4,a3,-2
    3988:	fef764e3          	bltu	a4,a5,3970 <malloc+0x48>
    398c:	00000513          	li	a0,0
    3990:	00008067          	ret
    3994:	ffe7f593          	andi	a1,a5,-2
    3998:	00387613          	andi	a2,a6,3
    399c:	00458513          	addi	a0,a1,4
    39a0:	06061263          	bnez	a2,3a04 <malloc+0xdc>
    39a4:	00480693          	addi	a3,a6,4
    39a8:	00c686b3          	add	a3,a3,a2
    39ac:	ffc6f693          	andi	a3,a3,-4
    39b0:	00d786b3          	add	a3,a5,a3
    39b4:	92d8ae23          	sw	a3,-1732(a7)
    39b8:	00e68463          	beq	a3,a4,39c0 <malloc+0x98>
    39bc:	00e6a023          	sw	a4,0(a3)
    39c0:	0016e693          	ori	a3,a3,1
    39c4:	00d7a023          	sw	a3,0(a5)
    39c8:	ffc00793          	li	a5,-4
    39cc:	f8f58ae3          	beq	a1,a5,3960 <malloc+0x38>
    39d0:	00008067          	ret
    39d4:	000097b7          	lui	a5,0x9
    39d8:	000096b7          	lui	a3,0x9
    39dc:	9047a783          	lw	a5,-1788(a5) # 8904 <heap_top>
    39e0:	9006a583          	lw	a1,-1792(a3) # 8900 <heap_size>
    39e4:	92f8ae23          	sw	a5,-1732(a7)
    39e8:	00b785b3          	add	a1,a5,a1
    39ec:	ff05f593          	andi	a1,a1,-16
    39f0:	92b72c23          	sw	a1,-1736(a4)
    39f4:	00b7a023          	sw	a1,0(a5)
    39f8:	f4b7e6e3          	bltu	a5,a1,3944 <malloc+0x1c>
    39fc:	00000513          	li	a0,0
    3a00:	00008067          	ret
    3a04:	00400693          	li	a3,4
    3a08:	40c68633          	sub	a2,a3,a2
    3a0c:	f99ff06f          	j	39a4 <malloc+0x7c>
    3a10:	ffe77513          	andi	a0,a4,-2
    3a14:	00387613          	andi	a2,a6,3
    3a18:	00450513          	addi	a0,a0,4
    3a1c:	00060663          	beqz	a2,3a28 <malloc+0x100>
    3a20:	00400793          	li	a5,4
    3a24:	40c78633          	sub	a2,a5,a2
    3a28:	00480793          	addi	a5,a6,4
    3a2c:	00c787b3          	add	a5,a5,a2
    3a30:	ffc7f793          	andi	a5,a5,-4
    3a34:	00f707b3          	add	a5,a4,a5
    3a38:	92f8ae23          	sw	a5,-1732(a7)
    3a3c:	00d78463          	beq	a5,a3,3a44 <malloc+0x11c>
    3a40:	00d7a023          	sw	a3,0(a5)
    3a44:	0017e793          	ori	a5,a5,1
    3a48:	00f72023          	sw	a5,0(a4)
    3a4c:	00008067          	ret

00003a50 <free>:
    3a50:	ffc52783          	lw	a5,-4(a0)
    3a54:	ffe7f793          	andi	a5,a5,-2
    3a58:	fef52e23          	sw	a5,-4(a0)
    3a5c:	0007a783          	lw	a5,0(a5)
    3a60:	0017f713          	andi	a4,a5,1
    3a64:	00071a63          	bnez	a4,3a78 <free+0x28>
    3a68:	ffc50713          	addi	a4,a0,-4
    3a6c:	fef52e23          	sw	a5,-4(a0)
    3a70:	000097b7          	lui	a5,0x9
    3a74:	92e7ae23          	sw	a4,-1732(a5) # 893c <curr_top>
    3a78:	00008067          	ret

00003a7c <calloc>:
    3a7c:	ff010113          	addi	sp,sp,-16
    3a80:	00912423          	sw	s1,8(sp)
    3a84:	02b504b3          	mul	s1,a0,a1
    3a88:	00112623          	sw	ra,12(sp)
    3a8c:	00048513          	mv	a0,s1
    3a90:	e99ff0ef          	jal	3928 <malloc>
    3a94:	00048613          	mv	a2,s1
    3a98:	00000593          	li	a1,0
    3a9c:	00050493          	mv	s1,a0
    3aa0:	17c000ef          	jal	3c1c <memset>
    3aa4:	00c12083          	lw	ra,12(sp)
    3aa8:	00048513          	mv	a0,s1
    3aac:	00812483          	lw	s1,8(sp)
    3ab0:	01010113          	addi	sp,sp,16
    3ab4:	00008067          	ret

00003ab8 <atoi>:
    3ab8:	00050793          	mv	a5,a0
    3abc:	02000693          	li	a3,32
    3ac0:	00900613          	li	a2,9
    3ac4:	0007c703          	lbu	a4,0(a5)
    3ac8:	00d70463          	beq	a4,a3,3ad0 <atoi+0x18>
    3acc:	00c71663          	bne	a4,a2,3ad8 <atoi+0x20>
    3ad0:	00178793          	addi	a5,a5,1
    3ad4:	ff1ff06f          	j	3ac4 <atoi+0xc>
    3ad8:	02d00693          	li	a3,45
    3adc:	00100813          	li	a6,1
    3ae0:	00d71863          	bne	a4,a3,3af0 <atoi+0x38>
    3ae4:	0017c703          	lbu	a4,1(a5)
    3ae8:	fff00813          	li	a6,-1
    3aec:	00178793          	addi	a5,a5,1
    3af0:	fd070713          	addi	a4,a4,-48
    3af4:	0ff77613          	zext.b	a2,a4
    3af8:	00900693          	li	a3,9
    3afc:	00000513          	li	a0,0
    3b00:	04c6e263          	bltu	a3,a2,3b44 <atoi+0x8c>
    3b04:	0017c603          	lbu	a2,1(a5)
    3b08:	00178793          	addi	a5,a5,1
    3b0c:	02060e63          	beqz	a2,3b48 <atoi+0x90>
    3b10:	00900513          	li	a0,9
    3b14:	0100006f          	j	3b24 <atoi+0x6c>
    3b18:	0007c603          	lbu	a2,0(a5)
    3b1c:	00e58733          	add	a4,a1,a4
    3b20:	02060463          	beqz	a2,3b48 <atoi+0x90>
    3b24:	00271693          	slli	a3,a4,0x2
    3b28:	fd060593          	addi	a1,a2,-48
    3b2c:	00e68733          	add	a4,a3,a4
    3b30:	0ff5f693          	zext.b	a3,a1
    3b34:	00178793          	addi	a5,a5,1
    3b38:	00171713          	slli	a4,a4,0x1
    3b3c:	fcd57ee3          	bgeu	a0,a3,3b18 <atoi+0x60>
    3b40:	00000513          	li	a0,0
    3b44:	00008067          	ret
    3b48:	02e80533          	mul	a0,a6,a4
    3b4c:	00008067          	ret

00003b50 <abs>:
    3b50:	41f55793          	srai	a5,a0,0x1f
    3b54:	00a7c533          	xor	a0,a5,a0
    3b58:	40f50533          	sub	a0,a0,a5
    3b5c:	00008067          	ret

00003b60 <srand>:
    3b60:	000097b7          	lui	a5,0x9
    3b64:	92a7aa23          	sw	a0,-1740(a5) # 8934 <rand_seed>
    3b68:	00008067          	ret

00003b6c <rand>:
    3b6c:	000096b7          	lui	a3,0x9
    3b70:	9346a783          	lw	a5,-1740(a3) # 8934 <rand_seed>
    3b74:	00034737          	lui	a4,0x34
    3b78:	3fd70713          	addi	a4,a4,1021 # 343fd <__stack_top+0x27a9d>
    3b7c:	02e787b3          	mul	a5,a5,a4
    3b80:	0026a737          	lui	a4,0x26a
    3b84:	ec370713          	addi	a4,a4,-317 # 269ec3 <__stack_top+0x25d563>
    3b88:	00e787b3          	add	a5,a5,a4
    3b8c:	00179513          	slli	a0,a5,0x1
    3b90:	92f6aa23          	sw	a5,-1740(a3)
    3b94:	01155513          	srli	a0,a0,0x11
    3b98:	00008067          	ret

00003b9c <memcpy>:
    3b9c:	02060063          	beqz	a2,3bbc <memcpy+0x20>
    3ba0:	00c50633          	add	a2,a0,a2
    3ba4:	00050793          	mv	a5,a0
    3ba8:	0005c703          	lbu	a4,0(a1)
    3bac:	00178793          	addi	a5,a5,1
    3bb0:	00158593          	addi	a1,a1,1
    3bb4:	fee78fa3          	sb	a4,-1(a5)
    3bb8:	fef618e3          	bne	a2,a5,3ba8 <memcpy+0xc>
    3bbc:	00008067          	ret

00003bc0 <memmove>:
    3bc0:	02b56a63          	bltu	a0,a1,3bf4 <memmove+0x34>
    3bc4:	00c587b3          	add	a5,a1,a2
    3bc8:	02a7e663          	bltu	a5,a0,3bf4 <memmove+0x34>
    3bcc:	fff60793          	addi	a5,a2,-1
    3bd0:	0407c263          	bltz	a5,3c14 <memmove+0x54>
    3bd4:	fff00613          	li	a2,-1
    3bd8:	00f58733          	add	a4,a1,a5
    3bdc:	00074683          	lbu	a3,0(a4)
    3be0:	00f50733          	add	a4,a0,a5
    3be4:	fff78793          	addi	a5,a5,-1
    3be8:	00d70023          	sb	a3,0(a4)
    3bec:	fec796e3          	bne	a5,a2,3bd8 <memmove+0x18>
    3bf0:	00008067          	ret
    3bf4:	00c506b3          	add	a3,a0,a2
    3bf8:	00050793          	mv	a5,a0
    3bfc:	00060e63          	beqz	a2,3c18 <memmove+0x58>
    3c00:	0005c703          	lbu	a4,0(a1)
    3c04:	00178793          	addi	a5,a5,1
    3c08:	00158593          	addi	a1,a1,1
    3c0c:	fee78fa3          	sb	a4,-1(a5)
    3c10:	fed798e3          	bne	a5,a3,3c00 <memmove+0x40>
    3c14:	00008067          	ret
    3c18:	00008067          	ret

00003c1c <memset>:
    3c1c:	0ff5f593          	zext.b	a1,a1
    3c20:	00c50733          	add	a4,a0,a2
    3c24:	00050793          	mv	a5,a0
    3c28:	00060863          	beqz	a2,3c38 <memset+0x1c>
    3c2c:	00178793          	addi	a5,a5,1
    3c30:	feb78fa3          	sb	a1,-1(a5)
    3c34:	fef71ce3          	bne	a4,a5,3c2c <memset+0x10>
    3c38:	00008067          	ret

00003c3c <strlen>:
    3c3c:	00054783          	lbu	a5,0(a0)
    3c40:	00050713          	mv	a4,a0
    3c44:	00000513          	li	a0,0
    3c48:	00078c63          	beqz	a5,3c60 <strlen+0x24>
    3c4c:	00150513          	addi	a0,a0,1
    3c50:	00a707b3          	add	a5,a4,a0
    3c54:	0007c783          	lbu	a5,0(a5)
    3c58:	fe079ae3          	bnez	a5,3c4c <strlen+0x10>
    3c5c:	00008067          	ret
    3c60:	00008067          	ret

00003c64 <strcpy>:
    3c64:	0005c783          	lbu	a5,0(a1)
    3c68:	00050713          	mv	a4,a0
    3c6c:	00078c63          	beqz	a5,3c84 <strcpy+0x20>
    3c70:	00f70023          	sb	a5,0(a4)
    3c74:	0015c783          	lbu	a5,1(a1)
    3c78:	00158593          	addi	a1,a1,1
    3c7c:	00170713          	addi	a4,a4,1
    3c80:	fe0798e3          	bnez	a5,3c70 <strcpy+0xc>
    3c84:	00070023          	sb	zero,0(a4)
    3c88:	00008067          	ret

00003c8c <strncpy>:
    3c8c:	0005c703          	lbu	a4,0(a1)
    3c90:	04070a63          	beqz	a4,3ce4 <strncpy+0x58>
    3c94:	00050793          	mv	a5,a0
    3c98:	00061663          	bnez	a2,3ca4 <strncpy+0x18>
    3c9c:	00008067          	ret
    3ca0:	04060063          	beqz	a2,3ce0 <strncpy+0x54>
    3ca4:	00e78023          	sb	a4,0(a5)
    3ca8:	0015c703          	lbu	a4,1(a1)
    3cac:	00060693          	mv	a3,a2
    3cb0:	00158593          	addi	a1,a1,1
    3cb4:	00178793          	addi	a5,a5,1
    3cb8:	fff60613          	addi	a2,a2,-1
    3cbc:	fe0712e3          	bnez	a4,3ca0 <strncpy+0x14>
    3cc0:	ffe68713          	addi	a4,a3,-2
    3cc4:	00170713          	addi	a4,a4,1
    3cc8:	00e78733          	add	a4,a5,a4
    3ccc:	02060263          	beqz	a2,3cf0 <strncpy+0x64>
    3cd0:	00178793          	addi	a5,a5,1
    3cd4:	fe078fa3          	sb	zero,-1(a5)
    3cd8:	fef71ce3          	bne	a4,a5,3cd0 <strncpy+0x44>
    3cdc:	00008067          	ret
    3ce0:	00008067          	ret
    3ce4:	fff60713          	addi	a4,a2,-1
    3ce8:	00050793          	mv	a5,a0
    3cec:	fd9ff06f          	j	3cc4 <strncpy+0x38>
    3cf0:	00008067          	ret

00003cf4 <strcat>:
    3cf4:	00054783          	lbu	a5,0(a0)
    3cf8:	02078c63          	beqz	a5,3d30 <strcat+0x3c>
    3cfc:	00050793          	mv	a5,a0
    3d00:	0017c703          	lbu	a4,1(a5)
    3d04:	00178793          	addi	a5,a5,1
    3d08:	fe071ce3          	bnez	a4,3d00 <strcat+0xc>
    3d0c:	0005c703          	lbu	a4,0(a1)
    3d10:	00070c63          	beqz	a4,3d28 <strcat+0x34>
    3d14:	00e78023          	sb	a4,0(a5)
    3d18:	0015c703          	lbu	a4,1(a1)
    3d1c:	00158593          	addi	a1,a1,1
    3d20:	00178793          	addi	a5,a5,1
    3d24:	fe0718e3          	bnez	a4,3d14 <strcat+0x20>
    3d28:	00078023          	sb	zero,0(a5)
    3d2c:	00008067          	ret
    3d30:	00050793          	mv	a5,a0
    3d34:	fd9ff06f          	j	3d0c <strcat+0x18>

00003d38 <strncat>:
    3d38:	00054783          	lbu	a5,0(a0)
    3d3c:	04078463          	beqz	a5,3d84 <strncat+0x4c>
    3d40:	00050793          	mv	a5,a0
    3d44:	0017c703          	lbu	a4,1(a5)
    3d48:	00178793          	addi	a5,a5,1
    3d4c:	fe071ce3          	bnez	a4,3d44 <strncat+0xc>
    3d50:	0005c703          	lbu	a4,0(a1)
    3d54:	02070463          	beqz	a4,3d7c <strncat+0x44>
    3d58:	02060263          	beqz	a2,3d7c <strncat+0x44>
    3d5c:	00c58633          	add	a2,a1,a2
    3d60:	0080006f          	j	3d68 <strncat+0x30>
    3d64:	00b60c63          	beq	a2,a1,3d7c <strncat+0x44>
    3d68:	00e78023          	sb	a4,0(a5)
    3d6c:	0015c703          	lbu	a4,1(a1)
    3d70:	00158593          	addi	a1,a1,1
    3d74:	00178793          	addi	a5,a5,1
    3d78:	fe0716e3          	bnez	a4,3d64 <strncat+0x2c>
    3d7c:	00078023          	sb	zero,0(a5)
    3d80:	00008067          	ret
    3d84:	00050793          	mv	a5,a0
    3d88:	fc9ff06f          	j	3d50 <strncat+0x18>

00003d8c <strcmp>:
    3d8c:	fff50513          	addi	a0,a0,-1
    3d90:	fff58593          	addi	a1,a1,-1
    3d94:	0080006f          	j	3d9c <strcmp+0x10>
    3d98:	02078463          	beqz	a5,3dc0 <strcmp+0x34>
    3d9c:	00154783          	lbu	a5,1(a0)
    3da0:	0015c703          	lbu	a4,1(a1)
    3da4:	00150513          	addi	a0,a0,1
    3da8:	00158593          	addi	a1,a1,1
    3dac:	fee786e3          	beq	a5,a4,3d98 <strcmp+0xc>
    3db0:	00100513          	li	a0,1
    3db4:	00e7f463          	bgeu	a5,a4,3dbc <strcmp+0x30>
    3db8:	fff00513          	li	a0,-1
    3dbc:	00008067          	ret
    3dc0:	00000513          	li	a0,0
    3dc4:	00008067          	ret

00003dc8 <strncmp>:
    3dc8:	fff60613          	addi	a2,a2,-1
    3dcc:	fff58593          	addi	a1,a1,-1
    3dd0:	00c50633          	add	a2,a0,a2
    3dd4:	0100006f          	j	3de4 <strncmp+0x1c>
    3dd8:	02c50663          	beq	a0,a2,3e04 <strncmp+0x3c>
    3ddc:	00150513          	addi	a0,a0,1
    3de0:	02078263          	beqz	a5,3e04 <strncmp+0x3c>
    3de4:	0015c703          	lbu	a4,1(a1)
    3de8:	00054783          	lbu	a5,0(a0)
    3dec:	00158593          	addi	a1,a1,1
    3df0:	fee784e3          	beq	a5,a4,3dd8 <strncmp+0x10>
    3df4:	00100513          	li	a0,1
    3df8:	00e7f863          	bgeu	a5,a4,3e08 <strncmp+0x40>
    3dfc:	fff00513          	li	a0,-1
    3e00:	00008067          	ret
    3e04:	00000513          	li	a0,0
    3e08:	00008067          	ret

00003e0c <clock>:
    3e0c:	b00026f3          	csrr	a3,mcycle
    3e10:	b80027f3          	csrr	a5,mcycleh
    3e14:	00100637          	lui	a2,0x100
    3e18:	00c79713          	slli	a4,a5,0xc
    3e1c:	0146d593          	srli	a1,a3,0x14
    3e20:	fff60613          	addi	a2,a2,-1 # fffff <__stack_top+0xf369f>
    3e24:	00b765b3          	or	a1,a4,a1
    3e28:	00c5f5b3          	and	a1,a1,a2
    3e2c:	00c6f733          	and	a4,a3,a2
    3e30:	0087d513          	srli	a0,a5,0x8
    3e34:	00b70733          	add	a4,a4,a1
    3e38:	00c575b3          	and	a1,a0,a2
    3e3c:	00b70733          	add	a4,a4,a1
    3e40:	41f7d613          	srai	a2,a5,0x1f
    3e44:	01c7d513          	srli	a0,a5,0x1c
    3e48:	02167593          	andi	a1,a2,33
    3e4c:	00a70733          	add	a4,a4,a0
    3e50:	00b70733          	add	a4,a4,a1
    3e54:	01900593          	li	a1,25
    3e58:	02b77733          	remu	a4,a4,a1
    3e5c:	fe867513          	andi	a0,a2,-24
    3e60:	8f5c35b7          	lui	a1,0x8f5c3
    3e64:	c28f6637          	lui	a2,0xc28f6
    3e68:	c2960613          	addi	a2,a2,-983 # c28f5c29 <__stack_top+0xc28e92c9>
    3e6c:	8f558593          	addi	a1,a1,-1803 # 8f5c28f5 <__stack_top+0x8f5b5f95>
    3e70:	00a70733          	add	a4,a4,a0
    3e74:	40e68533          	sub	a0,a3,a4
    3e78:	41f75713          	srai	a4,a4,0x1f
    3e7c:	00a6b6b3          	sltu	a3,a3,a0
    3e80:	40e787b3          	sub	a5,a5,a4
    3e84:	40d787b3          	sub	a5,a5,a3
    3e88:	02b505b3          	mul	a1,a0,a1
    3e8c:	02c787b3          	mul	a5,a5,a2
    3e90:	02c53733          	mulhu	a4,a0,a2
    3e94:	00b787b3          	add	a5,a5,a1
    3e98:	02c50533          	mul	a0,a0,a2
    3e9c:	00e787b3          	add	a5,a5,a4
    3ea0:	01f7d693          	srli	a3,a5,0x1f
    3ea4:	00a68733          	add	a4,a3,a0
    3ea8:	00d73533          	sltu	a0,a4,a3
    3eac:	00f50533          	add	a0,a0,a5
    3eb0:	00175713          	srli	a4,a4,0x1
    3eb4:	01f51513          	slli	a0,a0,0x1f
    3eb8:	00e56533          	or	a0,a0,a4
    3ebc:	00008067          	ret

00003ec0 <inbyte>:
    3ec0:	c0000737          	lui	a4,0xc0000
    3ec4:	00870713          	addi	a4,a4,8 # c0000008 <__stack_top+0xbfff36a8>
    3ec8:	00072783          	lw	a5,0(a4)
    3ecc:	0017f793          	andi	a5,a5,1
    3ed0:	fe078ce3          	beqz	a5,3ec8 <inbyte+0x8>
    3ed4:	c00007b7          	lui	a5,0xc0000
    3ed8:	0007a503          	lw	a0,0(a5) # c0000000 <__stack_top+0xbfff36a0>
    3edc:	0ff57513          	zext.b	a0,a0
    3ee0:	00008067          	ret

00003ee4 <outbyte>:
    3ee4:	00a00793          	li	a5,10
    3ee8:	02f50263          	beq	a0,a5,3f0c <outbyte+0x28>
    3eec:	c0000737          	lui	a4,0xc0000
    3ef0:	00870713          	addi	a4,a4,8 # c0000008 <__stack_top+0xbfff36a8>
    3ef4:	00072783          	lw	a5,0(a4)
    3ef8:	0087f793          	andi	a5,a5,8
    3efc:	fe079ce3          	bnez	a5,3ef4 <outbyte+0x10>
    3f00:	c00007b7          	lui	a5,0xc0000
    3f04:	00a7a223          	sw	a0,4(a5) # c0000004 <__stack_top+0xbfff36a4>
    3f08:	00008067          	ret
    3f0c:	c0000737          	lui	a4,0xc0000
    3f10:	00870713          	addi	a4,a4,8 # c0000008 <__stack_top+0xbfff36a8>
    3f14:	00072783          	lw	a5,0(a4)
    3f18:	0087f793          	andi	a5,a5,8
    3f1c:	fe079ce3          	bnez	a5,3f14 <outbyte+0x30>
    3f20:	c00007b7          	lui	a5,0xc0000
    3f24:	00d00713          	li	a4,13
    3f28:	00e7a223          	sw	a4,4(a5) # c0000004 <__stack_top+0xbfff36a4>
    3f2c:	fc1ff06f          	j	3eec <outbyte+0x8>

00003f30 <__udivdi3>:
    3f30:	00050893          	mv	a7,a0
    3f34:	00058313          	mv	t1,a1
    3f38:	00060713          	mv	a4,a2
    3f3c:	00050813          	mv	a6,a0
    3f40:	00058793          	mv	a5,a1
    3f44:	28069263          	bnez	a3,41c8 <__udivdi3+0x298>
    3f48:	000085b7          	lui	a1,0x8
    3f4c:	7e058593          	addi	a1,a1,2016 # 87e0 <__clz_tab>
    3f50:	0ec37663          	bgeu	t1,a2,403c <__udivdi3+0x10c>
    3f54:	000106b7          	lui	a3,0x10
    3f58:	0cd67863          	bgeu	a2,a3,4028 <__udivdi3+0xf8>
    3f5c:	10063693          	sltiu	a3,a2,256
    3f60:	0016b693          	seqz	a3,a3
    3f64:	00369693          	slli	a3,a3,0x3
    3f68:	00d65533          	srl	a0,a2,a3
    3f6c:	00a585b3          	add	a1,a1,a0
    3f70:	0005c583          	lbu	a1,0(a1)
    3f74:	02000513          	li	a0,32
    3f78:	00d586b3          	add	a3,a1,a3
    3f7c:	40d505b3          	sub	a1,a0,a3
    3f80:	00d50c63          	beq	a0,a3,3f98 <__udivdi3+0x68>
    3f84:	00b317b3          	sll	a5,t1,a1
    3f88:	00d8d6b3          	srl	a3,a7,a3
    3f8c:	00b61733          	sll	a4,a2,a1
    3f90:	00f6e7b3          	or	a5,a3,a5
    3f94:	00b89833          	sll	a6,a7,a1
    3f98:	01075593          	srli	a1,a4,0x10
    3f9c:	02b7d333          	divu	t1,a5,a1
    3fa0:	01071613          	slli	a2,a4,0x10
    3fa4:	01065613          	srli	a2,a2,0x10
    3fa8:	02b7f7b3          	remu	a5,a5,a1
    3fac:	00030513          	mv	a0,t1
    3fb0:	026608b3          	mul	a7,a2,t1
    3fb4:	01079693          	slli	a3,a5,0x10
    3fb8:	01085793          	srli	a5,a6,0x10
    3fbc:	00d7e7b3          	or	a5,a5,a3
    3fc0:	0117fe63          	bgeu	a5,a7,3fdc <__udivdi3+0xac>
    3fc4:	00f707b3          	add	a5,a4,a5
    3fc8:	fff30513          	addi	a0,t1,-1
    3fcc:	00e7e863          	bltu	a5,a4,3fdc <__udivdi3+0xac>
    3fd0:	0117f663          	bgeu	a5,a7,3fdc <__udivdi3+0xac>
    3fd4:	ffe30513          	addi	a0,t1,-2
    3fd8:	00e787b3          	add	a5,a5,a4
    3fdc:	411787b3          	sub	a5,a5,a7
    3fe0:	02b7d8b3          	divu	a7,a5,a1
    3fe4:	01081813          	slli	a6,a6,0x10
    3fe8:	01085813          	srli	a6,a6,0x10
    3fec:	02b7f7b3          	remu	a5,a5,a1
    3ff0:	031606b3          	mul	a3,a2,a7
    3ff4:	01079793          	slli	a5,a5,0x10
    3ff8:	00f86833          	or	a6,a6,a5
    3ffc:	00088793          	mv	a5,a7
    4000:	00d87c63          	bgeu	a6,a3,4018 <__udivdi3+0xe8>
    4004:	01070833          	add	a6,a4,a6
    4008:	fff88793          	addi	a5,a7,-1
    400c:	00e86663          	bltu	a6,a4,4018 <__udivdi3+0xe8>
    4010:	00d87463          	bgeu	a6,a3,4018 <__udivdi3+0xe8>
    4014:	ffe88793          	addi	a5,a7,-2
    4018:	01051513          	slli	a0,a0,0x10
    401c:	00f56533          	or	a0,a0,a5
    4020:	00000593          	li	a1,0
    4024:	00008067          	ret
    4028:	01000537          	lui	a0,0x1000
    402c:	01800693          	li	a3,24
    4030:	f2a67ce3          	bgeu	a2,a0,3f68 <__udivdi3+0x38>
    4034:	01000693          	li	a3,16
    4038:	f31ff06f          	j	3f68 <__udivdi3+0x38>
    403c:	00000693          	li	a3,0
    4040:	00060c63          	beqz	a2,4058 <__udivdi3+0x128>
    4044:	000107b7          	lui	a5,0x10
    4048:	0cf67063          	bgeu	a2,a5,4108 <__udivdi3+0x1d8>
    404c:	10063693          	sltiu	a3,a2,256
    4050:	0016b693          	seqz	a3,a3
    4054:	00369693          	slli	a3,a3,0x3
    4058:	00d657b3          	srl	a5,a2,a3
    405c:	00f585b3          	add	a1,a1,a5
    4060:	0005c783          	lbu	a5,0(a1)
    4064:	00d787b3          	add	a5,a5,a3
    4068:	02000693          	li	a3,32
    406c:	40f685b3          	sub	a1,a3,a5
    4070:	0af69663          	bne	a3,a5,411c <__udivdi3+0x1ec>
    4074:	40c307b3          	sub	a5,t1,a2
    4078:	00100593          	li	a1,1
    407c:	01075893          	srli	a7,a4,0x10
    4080:	0317de33          	divu	t3,a5,a7
    4084:	01071613          	slli	a2,a4,0x10
    4088:	01065613          	srli	a2,a2,0x10
    408c:	01085693          	srli	a3,a6,0x10
    4090:	0317f7b3          	remu	a5,a5,a7
    4094:	000e0513          	mv	a0,t3
    4098:	03c60333          	mul	t1,a2,t3
    409c:	01079793          	slli	a5,a5,0x10
    40a0:	00f6e7b3          	or	a5,a3,a5
    40a4:	0067fe63          	bgeu	a5,t1,40c0 <__udivdi3+0x190>
    40a8:	00f707b3          	add	a5,a4,a5
    40ac:	fffe0513          	addi	a0,t3,-1
    40b0:	00e7e863          	bltu	a5,a4,40c0 <__udivdi3+0x190>
    40b4:	0067f663          	bgeu	a5,t1,40c0 <__udivdi3+0x190>
    40b8:	ffee0513          	addi	a0,t3,-2
    40bc:	00e787b3          	add	a5,a5,a4
    40c0:	406787b3          	sub	a5,a5,t1
    40c4:	0317d333          	divu	t1,a5,a7
    40c8:	01081813          	slli	a6,a6,0x10
    40cc:	01085813          	srli	a6,a6,0x10
    40d0:	0317f7b3          	remu	a5,a5,a7
    40d4:	026606b3          	mul	a3,a2,t1
    40d8:	01079793          	slli	a5,a5,0x10
    40dc:	00f86833          	or	a6,a6,a5
    40e0:	00030793          	mv	a5,t1
    40e4:	00d87c63          	bgeu	a6,a3,40fc <__udivdi3+0x1cc>
    40e8:	01070833          	add	a6,a4,a6
    40ec:	fff30793          	addi	a5,t1,-1
    40f0:	00e86663          	bltu	a6,a4,40fc <__udivdi3+0x1cc>
    40f4:	00d87463          	bgeu	a6,a3,40fc <__udivdi3+0x1cc>
    40f8:	ffe30793          	addi	a5,t1,-2
    40fc:	01051513          	slli	a0,a0,0x10
    4100:	00f56533          	or	a0,a0,a5
    4104:	00008067          	ret
    4108:	010007b7          	lui	a5,0x1000
    410c:	01800693          	li	a3,24
    4110:	f4f674e3          	bgeu	a2,a5,4058 <__udivdi3+0x128>
    4114:	01000693          	li	a3,16
    4118:	f41ff06f          	j	4058 <__udivdi3+0x128>
    411c:	00b61733          	sll	a4,a2,a1
    4120:	00f356b3          	srl	a3,t1,a5
    4124:	01075513          	srli	a0,a4,0x10
    4128:	00b31333          	sll	t1,t1,a1
    412c:	00f8d7b3          	srl	a5,a7,a5
    4130:	0067e7b3          	or	a5,a5,t1
    4134:	02a6d333          	divu	t1,a3,a0
    4138:	01071613          	slli	a2,a4,0x10
    413c:	01065613          	srli	a2,a2,0x10
    4140:	00b89833          	sll	a6,a7,a1
    4144:	02a6f6b3          	remu	a3,a3,a0
    4148:	026608b3          	mul	a7,a2,t1
    414c:	01069593          	slli	a1,a3,0x10
    4150:	0107d693          	srli	a3,a5,0x10
    4154:	00b6e6b3          	or	a3,a3,a1
    4158:	00030593          	mv	a1,t1
    415c:	0116fe63          	bgeu	a3,a7,4178 <__udivdi3+0x248>
    4160:	00d706b3          	add	a3,a4,a3
    4164:	fff30593          	addi	a1,t1,-1
    4168:	00e6e863          	bltu	a3,a4,4178 <__udivdi3+0x248>
    416c:	0116f663          	bgeu	a3,a7,4178 <__udivdi3+0x248>
    4170:	ffe30593          	addi	a1,t1,-2
    4174:	00e686b3          	add	a3,a3,a4
    4178:	411686b3          	sub	a3,a3,a7
    417c:	02a6d8b3          	divu	a7,a3,a0
    4180:	01079793          	slli	a5,a5,0x10
    4184:	0107d793          	srli	a5,a5,0x10
    4188:	02a6f6b3          	remu	a3,a3,a0
    418c:	03160633          	mul	a2,a2,a7
    4190:	01069693          	slli	a3,a3,0x10
    4194:	00d7e7b3          	or	a5,a5,a3
    4198:	00088693          	mv	a3,a7
    419c:	00c7fe63          	bgeu	a5,a2,41b8 <__udivdi3+0x288>
    41a0:	00f707b3          	add	a5,a4,a5
    41a4:	fff88693          	addi	a3,a7,-1
    41a8:	00e7e863          	bltu	a5,a4,41b8 <__udivdi3+0x288>
    41ac:	00c7f663          	bgeu	a5,a2,41b8 <__udivdi3+0x288>
    41b0:	ffe88693          	addi	a3,a7,-2
    41b4:	00e787b3          	add	a5,a5,a4
    41b8:	01059593          	slli	a1,a1,0x10
    41bc:	40c787b3          	sub	a5,a5,a2
    41c0:	00d5e5b3          	or	a1,a1,a3
    41c4:	eb9ff06f          	j	407c <__udivdi3+0x14c>
    41c8:	18d5e663          	bltu	a1,a3,4354 <__udivdi3+0x424>
    41cc:	000107b7          	lui	a5,0x10
    41d0:	04f6f463          	bgeu	a3,a5,4218 <__udivdi3+0x2e8>
    41d4:	1006b713          	sltiu	a4,a3,256
    41d8:	00173713          	seqz	a4,a4
    41dc:	00371713          	slli	a4,a4,0x3
    41e0:	000087b7          	lui	a5,0x8
    41e4:	00e6d5b3          	srl	a1,a3,a4
    41e8:	7e078793          	addi	a5,a5,2016 # 87e0 <__clz_tab>
    41ec:	00b787b3          	add	a5,a5,a1
    41f0:	0007c783          	lbu	a5,0(a5)
    41f4:	00e787b3          	add	a5,a5,a4
    41f8:	02000713          	li	a4,32
    41fc:	40f705b3          	sub	a1,a4,a5
    4200:	02f71663          	bne	a4,a5,422c <__udivdi3+0x2fc>
    4204:	00100513          	li	a0,1
    4208:	e066eee3          	bltu	a3,t1,4024 <__udivdi3+0xf4>
    420c:	00c8b533          	sltu	a0,a7,a2
    4210:	00153513          	seqz	a0,a0
    4214:	00008067          	ret
    4218:	010007b7          	lui	a5,0x1000
    421c:	01800713          	li	a4,24
    4220:	fcf6f0e3          	bgeu	a3,a5,41e0 <__udivdi3+0x2b0>
    4224:	01000713          	li	a4,16
    4228:	fb9ff06f          	j	41e0 <__udivdi3+0x2b0>
    422c:	00f65733          	srl	a4,a2,a5
    4230:	00b696b3          	sll	a3,a3,a1
    4234:	00d766b3          	or	a3,a4,a3
    4238:	00f35733          	srl	a4,t1,a5
    423c:	00b31333          	sll	t1,t1,a1
    4240:	00f8d7b3          	srl	a5,a7,a5
    4244:	0067e7b3          	or	a5,a5,t1
    4248:	0106d313          	srli	t1,a3,0x10
    424c:	02675eb3          	divu	t4,a4,t1
    4250:	01069813          	slli	a6,a3,0x10
    4254:	01085813          	srli	a6,a6,0x10
    4258:	00b61633          	sll	a2,a2,a1
    425c:	02677733          	remu	a4,a4,t1
    4260:	03d80e33          	mul	t3,a6,t4
    4264:	01071513          	slli	a0,a4,0x10
    4268:	0107d713          	srli	a4,a5,0x10
    426c:	00a76733          	or	a4,a4,a0
    4270:	000e8513          	mv	a0,t4
    4274:	01c77e63          	bgeu	a4,t3,4290 <__udivdi3+0x360>
    4278:	00e68733          	add	a4,a3,a4
    427c:	fffe8513          	addi	a0,t4,-1
    4280:	00d76863          	bltu	a4,a3,4290 <__udivdi3+0x360>
    4284:	01c77663          	bgeu	a4,t3,4290 <__udivdi3+0x360>
    4288:	ffee8513          	addi	a0,t4,-2
    428c:	00d70733          	add	a4,a4,a3
    4290:	41c70733          	sub	a4,a4,t3
    4294:	02675e33          	divu	t3,a4,t1
    4298:	01079793          	slli	a5,a5,0x10
    429c:	0107d793          	srli	a5,a5,0x10
    42a0:	02677733          	remu	a4,a4,t1
    42a4:	03c80833          	mul	a6,a6,t3
    42a8:	01071713          	slli	a4,a4,0x10
    42ac:	00e7e7b3          	or	a5,a5,a4
    42b0:	000e0713          	mv	a4,t3
    42b4:	0107fe63          	bgeu	a5,a6,42d0 <__udivdi3+0x3a0>
    42b8:	00f687b3          	add	a5,a3,a5
    42bc:	fffe0713          	addi	a4,t3,-1
    42c0:	00d7e863          	bltu	a5,a3,42d0 <__udivdi3+0x3a0>
    42c4:	0107f663          	bgeu	a5,a6,42d0 <__udivdi3+0x3a0>
    42c8:	ffee0713          	addi	a4,t3,-2
    42cc:	00d787b3          	add	a5,a5,a3
    42d0:	01051513          	slli	a0,a0,0x10
    42d4:	00010e37          	lui	t3,0x10
    42d8:	00e56533          	or	a0,a0,a4
    42dc:	fffe0693          	addi	a3,t3,-1 # ffff <__stack_top+0x369f>
    42e0:	00d57733          	and	a4,a0,a3
    42e4:	410787b3          	sub	a5,a5,a6
    42e8:	00d676b3          	and	a3,a2,a3
    42ec:	01055813          	srli	a6,a0,0x10
    42f0:	01065613          	srli	a2,a2,0x10
    42f4:	02d70333          	mul	t1,a4,a3
    42f8:	02d806b3          	mul	a3,a6,a3
    42fc:	02c70733          	mul	a4,a4,a2
    4300:	02c80833          	mul	a6,a6,a2
    4304:	00d70633          	add	a2,a4,a3
    4308:	01035713          	srli	a4,t1,0x10
    430c:	00c70733          	add	a4,a4,a2
    4310:	00d77463          	bgeu	a4,a3,4318 <__udivdi3+0x3e8>
    4314:	01c80833          	add	a6,a6,t3
    4318:	01075693          	srli	a3,a4,0x10
    431c:	010686b3          	add	a3,a3,a6
    4320:	02d7e663          	bltu	a5,a3,434c <__udivdi3+0x41c>
    4324:	ced79ee3          	bne	a5,a3,4020 <__udivdi3+0xf0>
    4328:	000107b7          	lui	a5,0x10
    432c:	fff78793          	addi	a5,a5,-1 # ffff <__stack_top+0x369f>
    4330:	00f77733          	and	a4,a4,a5
    4334:	01071713          	slli	a4,a4,0x10
    4338:	00f37333          	and	t1,t1,a5
    433c:	00b898b3          	sll	a7,a7,a1
    4340:	00670733          	add	a4,a4,t1
    4344:	00000593          	li	a1,0
    4348:	cce8fee3          	bgeu	a7,a4,4024 <__udivdi3+0xf4>
    434c:	fff50513          	addi	a0,a0,-1 # ffffff <__stack_top+0xff369f>
    4350:	cd1ff06f          	j	4020 <__udivdi3+0xf0>
    4354:	00000593          	li	a1,0
    4358:	00000513          	li	a0,0
    435c:	00008067          	ret

00004360 <__adddf3>:
    4360:	00100837          	lui	a6,0x100
    4364:	fff80813          	addi	a6,a6,-1 # fffff <__stack_top+0xf369f>
    4368:	fe010113          	addi	sp,sp,-32
    436c:	00b878b3          	and	a7,a6,a1
    4370:	0145d713          	srli	a4,a1,0x14
    4374:	01d55793          	srli	a5,a0,0x1d
    4378:	00d87833          	and	a6,a6,a3
    437c:	00912a23          	sw	s1,20(sp)
    4380:	7ff77493          	andi	s1,a4,2047
    4384:	00389713          	slli	a4,a7,0x3
    4388:	0146d893          	srli	a7,a3,0x14
    438c:	00381813          	slli	a6,a6,0x3
    4390:	01212823          	sw	s2,16(sp)
    4394:	00e7e7b3          	or	a5,a5,a4
    4398:	7ff8f893          	andi	a7,a7,2047
    439c:	01d65713          	srli	a4,a2,0x1d
    43a0:	00112e23          	sw	ra,28(sp)
    43a4:	00812c23          	sw	s0,24(sp)
    43a8:	01312623          	sw	s3,12(sp)
    43ac:	01f5d913          	srli	s2,a1,0x1f
    43b0:	01f6d693          	srli	a3,a3,0x1f
    43b4:	01076733          	or	a4,a4,a6
    43b8:	00351513          	slli	a0,a0,0x3
    43bc:	00361613          	slli	a2,a2,0x3
    43c0:	41148833          	sub	a6,s1,a7
    43c4:	2ad91a63          	bne	s2,a3,4678 <__adddf3+0x318>
    43c8:	11005c63          	blez	a6,44e0 <__adddf3+0x180>
    43cc:	04089063          	bnez	a7,440c <__adddf3+0xac>
    43d0:	00c766b3          	or	a3,a4,a2
    43d4:	66068063          	beqz	a3,4a34 <__adddf3+0x6d4>
    43d8:	fff80593          	addi	a1,a6,-1
    43dc:	02059063          	bnez	a1,43fc <__adddf3+0x9c>
    43e0:	00c50633          	add	a2,a0,a2
    43e4:	00a636b3          	sltu	a3,a2,a0
    43e8:	00e78733          	add	a4,a5,a4
    43ec:	00060513          	mv	a0,a2
    43f0:	00d707b3          	add	a5,a4,a3
    43f4:	00100493          	li	s1,1
    43f8:	06c0006f          	j	4464 <__adddf3+0x104>
    43fc:	7ff00693          	li	a3,2047
    4400:	02d81063          	bne	a6,a3,4420 <__adddf3+0xc0>
    4404:	7ff00493          	li	s1,2047
    4408:	1f80006f          	j	4600 <__adddf3+0x2a0>
    440c:	7ff00693          	li	a3,2047
    4410:	1ed48863          	beq	s1,a3,4600 <__adddf3+0x2a0>
    4414:	008006b7          	lui	a3,0x800
    4418:	00d76733          	or	a4,a4,a3
    441c:	00080593          	mv	a1,a6
    4420:	03800693          	li	a3,56
    4424:	0ab6c863          	blt	a3,a1,44d4 <__adddf3+0x174>
    4428:	01f00693          	li	a3,31
    442c:	06b6ca63          	blt	a3,a1,44a0 <__adddf3+0x140>
    4430:	02000813          	li	a6,32
    4434:	40b80833          	sub	a6,a6,a1
    4438:	010716b3          	sll	a3,a4,a6
    443c:	00b658b3          	srl	a7,a2,a1
    4440:	01061833          	sll	a6,a2,a6
    4444:	0116e6b3          	or	a3,a3,a7
    4448:	01003833          	snez	a6,a6
    444c:	0106e6b3          	or	a3,a3,a6
    4450:	00b755b3          	srl	a1,a4,a1
    4454:	00a68533          	add	a0,a3,a0
    4458:	00f585b3          	add	a1,a1,a5
    445c:	00d536b3          	sltu	a3,a0,a3
    4460:	00d587b3          	add	a5,a1,a3
    4464:	00879713          	slli	a4,a5,0x8
    4468:	18075c63          	bgez	a4,4600 <__adddf3+0x2a0>
    446c:	00148493          	addi	s1,s1,1
    4470:	7ff00713          	li	a4,2047
    4474:	5ae48a63          	beq	s1,a4,4a28 <__adddf3+0x6c8>
    4478:	ff800737          	lui	a4,0xff800
    447c:	fff70713          	addi	a4,a4,-1 # ff7fffff <__stack_top+0xff7f369f>
    4480:	00e7f733          	and	a4,a5,a4
    4484:	00155793          	srli	a5,a0,0x1
    4488:	00157513          	andi	a0,a0,1
    448c:	00a7e7b3          	or	a5,a5,a0
    4490:	01f71513          	slli	a0,a4,0x1f
    4494:	00f56533          	or	a0,a0,a5
    4498:	00175793          	srli	a5,a4,0x1
    449c:	1640006f          	j	4600 <__adddf3+0x2a0>
    44a0:	fe058693          	addi	a3,a1,-32
    44a4:	02000893          	li	a7,32
    44a8:	00d756b3          	srl	a3,a4,a3
    44ac:	00000813          	li	a6,0
    44b0:	01158863          	beq	a1,a7,44c0 <__adddf3+0x160>
    44b4:	04000813          	li	a6,64
    44b8:	40b80833          	sub	a6,a6,a1
    44bc:	01071833          	sll	a6,a4,a6
    44c0:	00c86833          	or	a6,a6,a2
    44c4:	01003833          	snez	a6,a6
    44c8:	0106e6b3          	or	a3,a3,a6
    44cc:	00000593          	li	a1,0
    44d0:	f85ff06f          	j	4454 <__adddf3+0xf4>
    44d4:	00c766b3          	or	a3,a4,a2
    44d8:	00d036b3          	snez	a3,a3
    44dc:	ff1ff06f          	j	44cc <__adddf3+0x16c>
    44e0:	0c080a63          	beqz	a6,45b4 <__adddf3+0x254>
    44e4:	409886b3          	sub	a3,a7,s1
    44e8:	02049463          	bnez	s1,4510 <__adddf3+0x1b0>
    44ec:	00a7e5b3          	or	a1,a5,a0
    44f0:	50058e63          	beqz	a1,4a0c <__adddf3+0x6ac>
    44f4:	fff68593          	addi	a1,a3,-1 # 7fffff <__stack_top+0x7f369f>
    44f8:	ee0584e3          	beqz	a1,43e0 <__adddf3+0x80>
    44fc:	7ff00813          	li	a6,2047
    4500:	03069263          	bne	a3,a6,4524 <__adddf3+0x1c4>
    4504:	00070793          	mv	a5,a4
    4508:	00060513          	mv	a0,a2
    450c:	ef9ff06f          	j	4404 <__adddf3+0xa4>
    4510:	7ff00593          	li	a1,2047
    4514:	feb888e3          	beq	a7,a1,4504 <__adddf3+0x1a4>
    4518:	008005b7          	lui	a1,0x800
    451c:	00b7e7b3          	or	a5,a5,a1
    4520:	00068593          	mv	a1,a3
    4524:	03800693          	li	a3,56
    4528:	08b6c063          	blt	a3,a1,45a8 <__adddf3+0x248>
    452c:	01f00693          	li	a3,31
    4530:	04b6c263          	blt	a3,a1,4574 <__adddf3+0x214>
    4534:	02000813          	li	a6,32
    4538:	40b80833          	sub	a6,a6,a1
    453c:	010796b3          	sll	a3,a5,a6
    4540:	00b55333          	srl	t1,a0,a1
    4544:	01051833          	sll	a6,a0,a6
    4548:	0066e6b3          	or	a3,a3,t1
    454c:	01003833          	snez	a6,a6
    4550:	0106e6b3          	or	a3,a3,a6
    4554:	00b7d5b3          	srl	a1,a5,a1
    4558:	00c68633          	add	a2,a3,a2
    455c:	00e585b3          	add	a1,a1,a4
    4560:	00d636b3          	sltu	a3,a2,a3
    4564:	00060513          	mv	a0,a2
    4568:	00d587b3          	add	a5,a1,a3
    456c:	00088493          	mv	s1,a7
    4570:	ef5ff06f          	j	4464 <__adddf3+0x104>
    4574:	fe058693          	addi	a3,a1,-32 # 7fffe0 <__stack_top+0x7f3680>
    4578:	02000313          	li	t1,32
    457c:	00d7d6b3          	srl	a3,a5,a3
    4580:	00000813          	li	a6,0
    4584:	00658863          	beq	a1,t1,4594 <__adddf3+0x234>
    4588:	04000813          	li	a6,64
    458c:	40b80833          	sub	a6,a6,a1
    4590:	01079833          	sll	a6,a5,a6
    4594:	00a86833          	or	a6,a6,a0
    4598:	01003833          	snez	a6,a6
    459c:	0106e6b3          	or	a3,a3,a6
    45a0:	00000593          	li	a1,0
    45a4:	fb5ff06f          	j	4558 <__adddf3+0x1f8>
    45a8:	00a7e6b3          	or	a3,a5,a0
    45ac:	00d036b3          	snez	a3,a3
    45b0:	ff1ff06f          	j	45a0 <__adddf3+0x240>
    45b4:	00148693          	addi	a3,s1,1
    45b8:	7fe6f593          	andi	a1,a3,2046
    45bc:	08059663          	bnez	a1,4648 <__adddf3+0x2e8>
    45c0:	00a7e6b3          	or	a3,a5,a0
    45c4:	06049263          	bnez	s1,4628 <__adddf3+0x2c8>
    45c8:	44068863          	beqz	a3,4a18 <__adddf3+0x6b8>
    45cc:	00c766b3          	or	a3,a4,a2
    45d0:	02068863          	beqz	a3,4600 <__adddf3+0x2a0>
    45d4:	00c50633          	add	a2,a0,a2
    45d8:	00a636b3          	sltu	a3,a2,a0
    45dc:	00e78733          	add	a4,a5,a4
    45e0:	00d707b3          	add	a5,a4,a3
    45e4:	00879713          	slli	a4,a5,0x8
    45e8:	00060513          	mv	a0,a2
    45ec:	00075a63          	bgez	a4,4600 <__adddf3+0x2a0>
    45f0:	ff800737          	lui	a4,0xff800
    45f4:	fff70713          	addi	a4,a4,-1 # ff7fffff <__stack_top+0xff7f369f>
    45f8:	00e7f7b3          	and	a5,a5,a4
    45fc:	00100493          	li	s1,1
    4600:	00757713          	andi	a4,a0,7
    4604:	44070863          	beqz	a4,4a54 <__adddf3+0x6f4>
    4608:	00f57713          	andi	a4,a0,15
    460c:	00400693          	li	a3,4
    4610:	44d70263          	beq	a4,a3,4a54 <__adddf3+0x6f4>
    4614:	00450713          	addi	a4,a0,4
    4618:	00a736b3          	sltu	a3,a4,a0
    461c:	00d787b3          	add	a5,a5,a3
    4620:	00070513          	mv	a0,a4
    4624:	4300006f          	j	4a54 <__adddf3+0x6f4>
    4628:	ec068ee3          	beqz	a3,4504 <__adddf3+0x1a4>
    462c:	00c76633          	or	a2,a4,a2
    4630:	dc060ae3          	beqz	a2,4404 <__adddf3+0xa4>
    4634:	00000913          	li	s2,0
    4638:	004007b7          	lui	a5,0x400
    463c:	00000513          	li	a0,0
    4640:	7ff00493          	li	s1,2047
    4644:	4100006f          	j	4a54 <__adddf3+0x6f4>
    4648:	7ff00593          	li	a1,2047
    464c:	3cb68c63          	beq	a3,a1,4a24 <__adddf3+0x6c4>
    4650:	00c50633          	add	a2,a0,a2
    4654:	00a63533          	sltu	a0,a2,a0
    4658:	00e78733          	add	a4,a5,a4
    465c:	00a70733          	add	a4,a4,a0
    4660:	01f71513          	slli	a0,a4,0x1f
    4664:	00165613          	srli	a2,a2,0x1
    4668:	00c56533          	or	a0,a0,a2
    466c:	00175793          	srli	a5,a4,0x1
    4670:	00068493          	mv	s1,a3
    4674:	f8dff06f          	j	4600 <__adddf3+0x2a0>
    4678:	0f005c63          	blez	a6,4770 <__adddf3+0x410>
    467c:	08089e63          	bnez	a7,4718 <__adddf3+0x3b8>
    4680:	00c766b3          	or	a3,a4,a2
    4684:	3a068863          	beqz	a3,4a34 <__adddf3+0x6d4>
    4688:	fff80693          	addi	a3,a6,-1
    468c:	02069063          	bnez	a3,46ac <__adddf3+0x34c>
    4690:	40c50633          	sub	a2,a0,a2
    4694:	00c536b3          	sltu	a3,a0,a2
    4698:	40e78733          	sub	a4,a5,a4
    469c:	00060513          	mv	a0,a2
    46a0:	40d707b3          	sub	a5,a4,a3
    46a4:	00100493          	li	s1,1
    46a8:	0540006f          	j	46fc <__adddf3+0x39c>
    46ac:	7ff00593          	li	a1,2047
    46b0:	d4b80ae3          	beq	a6,a1,4404 <__adddf3+0xa4>
    46b4:	03800593          	li	a1,56
    46b8:	0ad5c663          	blt	a1,a3,4764 <__adddf3+0x404>
    46bc:	01f00593          	li	a1,31
    46c0:	06d5c863          	blt	a1,a3,4730 <__adddf3+0x3d0>
    46c4:	02000813          	li	a6,32
    46c8:	40d80833          	sub	a6,a6,a3
    46cc:	00d658b3          	srl	a7,a2,a3
    46d0:	010715b3          	sll	a1,a4,a6
    46d4:	01061833          	sll	a6,a2,a6
    46d8:	0115e5b3          	or	a1,a1,a7
    46dc:	01003833          	snez	a6,a6
    46e0:	0105e633          	or	a2,a1,a6
    46e4:	00d756b3          	srl	a3,a4,a3
    46e8:	40c50633          	sub	a2,a0,a2
    46ec:	00c53733          	sltu	a4,a0,a2
    46f0:	40d786b3          	sub	a3,a5,a3
    46f4:	00060513          	mv	a0,a2
    46f8:	40e687b3          	sub	a5,a3,a4
    46fc:	00879713          	slli	a4,a5,0x8
    4700:	f00750e3          	bgez	a4,4600 <__adddf3+0x2a0>
    4704:	00800437          	lui	s0,0x800
    4708:	fff40413          	addi	s0,s0,-1 # 7fffff <__stack_top+0x7f369f>
    470c:	0087f433          	and	s0,a5,s0
    4710:	00050993          	mv	s3,a0
    4714:	2100006f          	j	4924 <__adddf3+0x5c4>
    4718:	7ff00693          	li	a3,2047
    471c:	eed482e3          	beq	s1,a3,4600 <__adddf3+0x2a0>
    4720:	008006b7          	lui	a3,0x800
    4724:	00d76733          	or	a4,a4,a3
    4728:	00080693          	mv	a3,a6
    472c:	f89ff06f          	j	46b4 <__adddf3+0x354>
    4730:	fe068593          	addi	a1,a3,-32 # 7fffe0 <__stack_top+0x7f3680>
    4734:	02000893          	li	a7,32
    4738:	00b755b3          	srl	a1,a4,a1
    473c:	00000813          	li	a6,0
    4740:	01168863          	beq	a3,a7,4750 <__adddf3+0x3f0>
    4744:	04000813          	li	a6,64
    4748:	40d80833          	sub	a6,a6,a3
    474c:	01071833          	sll	a6,a4,a6
    4750:	00c86833          	or	a6,a6,a2
    4754:	01003833          	snez	a6,a6
    4758:	0105e633          	or	a2,a1,a6
    475c:	00000693          	li	a3,0
    4760:	f89ff06f          	j	46e8 <__adddf3+0x388>
    4764:	00c76633          	or	a2,a4,a2
    4768:	00c03633          	snez	a2,a2
    476c:	ff1ff06f          	j	475c <__adddf3+0x3fc>
    4770:	0e080863          	beqz	a6,4860 <__adddf3+0x500>
    4774:	40988833          	sub	a6,a7,s1
    4778:	04049263          	bnez	s1,47bc <__adddf3+0x45c>
    477c:	00a7e5b3          	or	a1,a5,a0
    4780:	2a058e63          	beqz	a1,4a3c <__adddf3+0x6dc>
    4784:	fff80593          	addi	a1,a6,-1
    4788:	00059e63          	bnez	a1,47a4 <__adddf3+0x444>
    478c:	40a60533          	sub	a0,a2,a0
    4790:	40f70733          	sub	a4,a4,a5
    4794:	00a63633          	sltu	a2,a2,a0
    4798:	40c707b3          	sub	a5,a4,a2
    479c:	00068913          	mv	s2,a3
    47a0:	f05ff06f          	j	46a4 <__adddf3+0x344>
    47a4:	7ff00313          	li	t1,2047
    47a8:	02681463          	bne	a6,t1,47d0 <__adddf3+0x470>
    47ac:	00070793          	mv	a5,a4
    47b0:	00060513          	mv	a0,a2
    47b4:	7ff00493          	li	s1,2047
    47b8:	0d00006f          	j	4888 <__adddf3+0x528>
    47bc:	7ff00593          	li	a1,2047
    47c0:	feb886e3          	beq	a7,a1,47ac <__adddf3+0x44c>
    47c4:	008005b7          	lui	a1,0x800
    47c8:	00b7e7b3          	or	a5,a5,a1
    47cc:	00080593          	mv	a1,a6
    47d0:	03800813          	li	a6,56
    47d4:	08b84063          	blt	a6,a1,4854 <__adddf3+0x4f4>
    47d8:	01f00813          	li	a6,31
    47dc:	04b84263          	blt	a6,a1,4820 <__adddf3+0x4c0>
    47e0:	02000313          	li	t1,32
    47e4:	40b30333          	sub	t1,t1,a1
    47e8:	00b55e33          	srl	t3,a0,a1
    47ec:	00679833          	sll	a6,a5,t1
    47f0:	00651333          	sll	t1,a0,t1
    47f4:	01c86833          	or	a6,a6,t3
    47f8:	00603333          	snez	t1,t1
    47fc:	00686533          	or	a0,a6,t1
    4800:	00b7d5b3          	srl	a1,a5,a1
    4804:	40a60533          	sub	a0,a2,a0
    4808:	40b705b3          	sub	a1,a4,a1
    480c:	00a63633          	sltu	a2,a2,a0
    4810:	40c587b3          	sub	a5,a1,a2
    4814:	00088493          	mv	s1,a7
    4818:	00068913          	mv	s2,a3
    481c:	ee1ff06f          	j	46fc <__adddf3+0x39c>
    4820:	fe058813          	addi	a6,a1,-32 # 7fffe0 <__stack_top+0x7f3680>
    4824:	02000e13          	li	t3,32
    4828:	0107d833          	srl	a6,a5,a6
    482c:	00000313          	li	t1,0
    4830:	01c58863          	beq	a1,t3,4840 <__adddf3+0x4e0>
    4834:	04000313          	li	t1,64
    4838:	40b30333          	sub	t1,t1,a1
    483c:	00679333          	sll	t1,a5,t1
    4840:	00a36333          	or	t1,t1,a0
    4844:	00603333          	snez	t1,t1
    4848:	00686533          	or	a0,a6,t1
    484c:	00000593          	li	a1,0
    4850:	fb5ff06f          	j	4804 <__adddf3+0x4a4>
    4854:	00a7e533          	or	a0,a5,a0
    4858:	00a03533          	snez	a0,a0
    485c:	ff1ff06f          	j	484c <__adddf3+0x4ec>
    4860:	00148593          	addi	a1,s1,1
    4864:	7fe5f593          	andi	a1,a1,2046
    4868:	08059663          	bnez	a1,48f4 <__adddf3+0x594>
    486c:	00a7e833          	or	a6,a5,a0
    4870:	00c765b3          	or	a1,a4,a2
    4874:	06049063          	bnez	s1,48d4 <__adddf3+0x574>
    4878:	00081c63          	bnez	a6,4890 <__adddf3+0x530>
    487c:	10058e63          	beqz	a1,4998 <__adddf3+0x638>
    4880:	00070793          	mv	a5,a4
    4884:	00060513          	mv	a0,a2
    4888:	00068913          	mv	s2,a3
    488c:	d75ff06f          	j	4600 <__adddf3+0x2a0>
    4890:	d60588e3          	beqz	a1,4600 <__adddf3+0x2a0>
    4894:	40c50833          	sub	a6,a0,a2
    4898:	010538b3          	sltu	a7,a0,a6
    489c:	40e785b3          	sub	a1,a5,a4
    48a0:	411585b3          	sub	a1,a1,a7
    48a4:	00859893          	slli	a7,a1,0x8
    48a8:	0008dc63          	bgez	a7,48c0 <__adddf3+0x560>
    48ac:	40a60533          	sub	a0,a2,a0
    48b0:	40f70733          	sub	a4,a4,a5
    48b4:	00a63633          	sltu	a2,a2,a0
    48b8:	40c707b3          	sub	a5,a4,a2
    48bc:	fcdff06f          	j	4888 <__adddf3+0x528>
    48c0:	00b86533          	or	a0,a6,a1
    48c4:	18050463          	beqz	a0,4a4c <__adddf3+0x6ec>
    48c8:	00058793          	mv	a5,a1
    48cc:	00080513          	mv	a0,a6
    48d0:	d31ff06f          	j	4600 <__adddf3+0x2a0>
    48d4:	00081c63          	bnez	a6,48ec <__adddf3+0x58c>
    48d8:	d4058ee3          	beqz	a1,4634 <__adddf3+0x2d4>
    48dc:	00070793          	mv	a5,a4
    48e0:	00060513          	mv	a0,a2
    48e4:	00068913          	mv	s2,a3
    48e8:	b1dff06f          	j	4404 <__adddf3+0xa4>
    48ec:	b0058ce3          	beqz	a1,4404 <__adddf3+0xa4>
    48f0:	d45ff06f          	j	4634 <__adddf3+0x2d4>
    48f4:	40c505b3          	sub	a1,a0,a2
    48f8:	00b53833          	sltu	a6,a0,a1
    48fc:	40e78433          	sub	s0,a5,a4
    4900:	41040433          	sub	s0,s0,a6
    4904:	00841813          	slli	a6,s0,0x8
    4908:	00058993          	mv	s3,a1
    490c:	08085063          	bgez	a6,498c <__adddf3+0x62c>
    4910:	40a609b3          	sub	s3,a2,a0
    4914:	40f70433          	sub	s0,a4,a5
    4918:	01363633          	sltu	a2,a2,s3
    491c:	40c40433          	sub	s0,s0,a2
    4920:	00068913          	mv	s2,a3
    4924:	06040e63          	beqz	s0,49a0 <__adddf3+0x640>
    4928:	00040513          	mv	a0,s0
    492c:	1d1010ef          	jal	62fc <__clzsi2>
    4930:	ff850693          	addi	a3,a0,-8
    4934:	02000793          	li	a5,32
    4938:	40d787b3          	sub	a5,a5,a3
    493c:	00d41433          	sll	s0,s0,a3
    4940:	00f9d7b3          	srl	a5,s3,a5
    4944:	0087e7b3          	or	a5,a5,s0
    4948:	00d99433          	sll	s0,s3,a3
    494c:	0a96c463          	blt	a3,s1,49f4 <__adddf3+0x694>
    4950:	409686b3          	sub	a3,a3,s1
    4954:	00168613          	addi	a2,a3,1
    4958:	01f00713          	li	a4,31
    495c:	06c74263          	blt	a4,a2,49c0 <__adddf3+0x660>
    4960:	02000713          	li	a4,32
    4964:	40c70733          	sub	a4,a4,a2
    4968:	00e79533          	sll	a0,a5,a4
    496c:	00c456b3          	srl	a3,s0,a2
    4970:	00e41733          	sll	a4,s0,a4
    4974:	00d56533          	or	a0,a0,a3
    4978:	00e03733          	snez	a4,a4
    497c:	00e56533          	or	a0,a0,a4
    4980:	00c7d7b3          	srl	a5,a5,a2
    4984:	00000493          	li	s1,0
    4988:	c79ff06f          	j	4600 <__adddf3+0x2a0>
    498c:	0085e5b3          	or	a1,a1,s0
    4990:	f8059ae3          	bnez	a1,4924 <__adddf3+0x5c4>
    4994:	00000493          	li	s1,0
    4998:	00000913          	li	s2,0
    499c:	08c0006f          	j	4a28 <__adddf3+0x6c8>
    49a0:	00098513          	mv	a0,s3
    49a4:	159010ef          	jal	62fc <__clzsi2>
    49a8:	01850693          	addi	a3,a0,24
    49ac:	01f00793          	li	a5,31
    49b0:	f8d7d2e3          	bge	a5,a3,4934 <__adddf3+0x5d4>
    49b4:	ff850793          	addi	a5,a0,-8
    49b8:	00f997b3          	sll	a5,s3,a5
    49bc:	f91ff06f          	j	494c <__adddf3+0x5ec>
    49c0:	fe168693          	addi	a3,a3,-31
    49c4:	00d7d533          	srl	a0,a5,a3
    49c8:	02000693          	li	a3,32
    49cc:	00000713          	li	a4,0
    49d0:	00d60863          	beq	a2,a3,49e0 <__adddf3+0x680>
    49d4:	04000713          	li	a4,64
    49d8:	40c70733          	sub	a4,a4,a2
    49dc:	00e79733          	sll	a4,a5,a4
    49e0:	00e46733          	or	a4,s0,a4
    49e4:	00e03733          	snez	a4,a4
    49e8:	00e56533          	or	a0,a0,a4
    49ec:	00000793          	li	a5,0
    49f0:	f95ff06f          	j	4984 <__adddf3+0x624>
    49f4:	ff800737          	lui	a4,0xff800
    49f8:	fff70713          	addi	a4,a4,-1 # ff7fffff <__stack_top+0xff7f369f>
    49fc:	40d484b3          	sub	s1,s1,a3
    4a00:	00e7f7b3          	and	a5,a5,a4
    4a04:	00040513          	mv	a0,s0
    4a08:	bf9ff06f          	j	4600 <__adddf3+0x2a0>
    4a0c:	00070793          	mv	a5,a4
    4a10:	00060513          	mv	a0,a2
    4a14:	c5dff06f          	j	4670 <__adddf3+0x310>
    4a18:	00070793          	mv	a5,a4
    4a1c:	00060513          	mv	a0,a2
    4a20:	be1ff06f          	j	4600 <__adddf3+0x2a0>
    4a24:	7ff00493          	li	s1,2047
    4a28:	00000793          	li	a5,0
    4a2c:	00000513          	li	a0,0
    4a30:	0240006f          	j	4a54 <__adddf3+0x6f4>
    4a34:	00080493          	mv	s1,a6
    4a38:	bc9ff06f          	j	4600 <__adddf3+0x2a0>
    4a3c:	00070793          	mv	a5,a4
    4a40:	00060513          	mv	a0,a2
    4a44:	00080493          	mv	s1,a6
    4a48:	e41ff06f          	j	4888 <__adddf3+0x528>
    4a4c:	00000793          	li	a5,0
    4a50:	00000913          	li	s2,0
    4a54:	00879713          	slli	a4,a5,0x8
    4a58:	00075e63          	bgez	a4,4a74 <__adddf3+0x714>
    4a5c:	00148493          	addi	s1,s1,1
    4a60:	7ff00713          	li	a4,2047
    4a64:	08e48263          	beq	s1,a4,4ae8 <__adddf3+0x788>
    4a68:	ff800737          	lui	a4,0xff800
    4a6c:	fff70713          	addi	a4,a4,-1 # ff7fffff <__stack_top+0xff7f369f>
    4a70:	00e7f7b3          	and	a5,a5,a4
    4a74:	01d79693          	slli	a3,a5,0x1d
    4a78:	00355513          	srli	a0,a0,0x3
    4a7c:	7ff00713          	li	a4,2047
    4a80:	00a6e6b3          	or	a3,a3,a0
    4a84:	0037d793          	srli	a5,a5,0x3
    4a88:	00e49e63          	bne	s1,a4,4aa4 <__adddf3+0x744>
    4a8c:	00f6e6b3          	or	a3,a3,a5
    4a90:	00000793          	li	a5,0
    4a94:	00068863          	beqz	a3,4aa4 <__adddf3+0x744>
    4a98:	000807b7          	lui	a5,0x80
    4a9c:	00000693          	li	a3,0
    4aa0:	00000913          	li	s2,0
    4aa4:	01449713          	slli	a4,s1,0x14
    4aa8:	7ff00637          	lui	a2,0x7ff00
    4aac:	00c79793          	slli	a5,a5,0xc
    4ab0:	00c77733          	and	a4,a4,a2
    4ab4:	01c12083          	lw	ra,28(sp)
    4ab8:	01812403          	lw	s0,24(sp)
    4abc:	00c7d793          	srli	a5,a5,0xc
    4ac0:	00f767b3          	or	a5,a4,a5
    4ac4:	01f91713          	slli	a4,s2,0x1f
    4ac8:	00e7e633          	or	a2,a5,a4
    4acc:	01412483          	lw	s1,20(sp)
    4ad0:	01012903          	lw	s2,16(sp)
    4ad4:	00c12983          	lw	s3,12(sp)
    4ad8:	00068513          	mv	a0,a3
    4adc:	00060593          	mv	a1,a2
    4ae0:	02010113          	addi	sp,sp,32
    4ae4:	00008067          	ret
    4ae8:	00000793          	li	a5,0
    4aec:	00000513          	li	a0,0
    4af0:	f85ff06f          	j	4a74 <__adddf3+0x714>

00004af4 <__divdf3>:
    4af4:	fd010113          	addi	sp,sp,-48
    4af8:	0145d813          	srli	a6,a1,0x14
    4afc:	02912223          	sw	s1,36(sp)
    4b00:	03212023          	sw	s2,32(sp)
    4b04:	01312e23          	sw	s3,28(sp)
    4b08:	01612823          	sw	s6,16(sp)
    4b0c:	01712623          	sw	s7,12(sp)
    4b10:	00c59493          	slli	s1,a1,0xc
    4b14:	02112623          	sw	ra,44(sp)
    4b18:	02812423          	sw	s0,40(sp)
    4b1c:	01412c23          	sw	s4,24(sp)
    4b20:	01512a23          	sw	s5,20(sp)
    4b24:	7ff87813          	andi	a6,a6,2047
    4b28:	00050b13          	mv	s6,a0
    4b2c:	00060b93          	mv	s7,a2
    4b30:	00068913          	mv	s2,a3
    4b34:	00c4d493          	srli	s1,s1,0xc
    4b38:	01f5d993          	srli	s3,a1,0x1f
    4b3c:	0a080063          	beqz	a6,4bdc <__divdf3+0xe8>
    4b40:	7ff00793          	li	a5,2047
    4b44:	10f80063          	beq	a6,a5,4c44 <__divdf3+0x150>
    4b48:	01d55a13          	srli	s4,a0,0x1d
    4b4c:	00349493          	slli	s1,s1,0x3
    4b50:	009a6a33          	or	s4,s4,s1
    4b54:	008007b7          	lui	a5,0x800
    4b58:	00fa6a33          	or	s4,s4,a5
    4b5c:	00351413          	slli	s0,a0,0x3
    4b60:	c0180a93          	addi	s5,a6,-1023
    4b64:	00000b13          	li	s6,0
    4b68:	01495713          	srli	a4,s2,0x14
    4b6c:	00c91493          	slli	s1,s2,0xc
    4b70:	7ff77713          	andi	a4,a4,2047
    4b74:	00c4d493          	srli	s1,s1,0xc
    4b78:	01f95913          	srli	s2,s2,0x1f
    4b7c:	10070263          	beqz	a4,4c80 <__divdf3+0x18c>
    4b80:	7ff00793          	li	a5,2047
    4b84:	16f70663          	beq	a4,a5,4cf0 <__divdf3+0x1fc>
    4b88:	00349493          	slli	s1,s1,0x3
    4b8c:	01dbd793          	srli	a5,s7,0x1d
    4b90:	0097e7b3          	or	a5,a5,s1
    4b94:	008004b7          	lui	s1,0x800
    4b98:	0097e4b3          	or	s1,a5,s1
    4b9c:	003b9f13          	slli	t5,s7,0x3
    4ba0:	c0170713          	addi	a4,a4,-1023
    4ba4:	00000793          	li	a5,0
    4ba8:	40ea8833          	sub	a6,s5,a4
    4bac:	002b1713          	slli	a4,s6,0x2
    4bb0:	00f76733          	or	a4,a4,a5
    4bb4:	fff70713          	addi	a4,a4,-1
    4bb8:	00e00693          	li	a3,14
    4bbc:	0129c633          	xor	a2,s3,s2
    4bc0:	16e6e463          	bltu	a3,a4,4d28 <__divdf3+0x234>
    4bc4:	000086b7          	lui	a3,0x8
    4bc8:	00271713          	slli	a4,a4,0x2
    4bcc:	7a468693          	addi	a3,a3,1956 # 87a4 <errpat+0x13c>
    4bd0:	00d70733          	add	a4,a4,a3
    4bd4:	00072703          	lw	a4,0(a4)
    4bd8:	00070067          	jr	a4
    4bdc:	00a4ea33          	or	s4,s1,a0
    4be0:	060a0e63          	beqz	s4,4c5c <__divdf3+0x168>
    4be4:	02048e63          	beqz	s1,4c20 <__divdf3+0x12c>
    4be8:	00048513          	mv	a0,s1
    4bec:	710010ef          	jal	62fc <__clzsi2>
    4bf0:	ff550793          	addi	a5,a0,-11
    4bf4:	01d00a13          	li	s4,29
    4bf8:	ff850713          	addi	a4,a0,-8
    4bfc:	40fa0a33          	sub	s4,s4,a5
    4c00:	00e494b3          	sll	s1,s1,a4
    4c04:	014b5a33          	srl	s4,s6,s4
    4c08:	009a6a33          	or	s4,s4,s1
    4c0c:	00eb14b3          	sll	s1,s6,a4
    4c10:	c0d00813          	li	a6,-1011
    4c14:	40a80ab3          	sub	s5,a6,a0
    4c18:	00048413          	mv	s0,s1
    4c1c:	f49ff06f          	j	4b64 <__divdf3+0x70>
    4c20:	6dc010ef          	jal	62fc <__clzsi2>
    4c24:	00050a13          	mv	s4,a0
    4c28:	015a0793          	addi	a5,s4,21 # fffff015 <__stack_top+0xffff26b5>
    4c2c:	01c00713          	li	a4,28
    4c30:	02050513          	addi	a0,a0,32
    4c34:	fcf750e3          	bge	a4,a5,4bf4 <__divdf3+0x100>
    4c38:	ff8a0a13          	addi	s4,s4,-8
    4c3c:	014b1a33          	sll	s4,s6,s4
    4c40:	fd1ff06f          	j	4c10 <__divdf3+0x11c>
    4c44:	00a4ea33          	or	s4,s1,a0
    4c48:	020a1263          	bnez	s4,4c6c <__divdf3+0x178>
    4c4c:	00000413          	li	s0,0
    4c50:	7ff00a93          	li	s5,2047
    4c54:	00200b13          	li	s6,2
    4c58:	f11ff06f          	j	4b68 <__divdf3+0x74>
    4c5c:	00000413          	li	s0,0
    4c60:	00000a93          	li	s5,0
    4c64:	00100b13          	li	s6,1
    4c68:	f01ff06f          	j	4b68 <__divdf3+0x74>
    4c6c:	00050413          	mv	s0,a0
    4c70:	00048a13          	mv	s4,s1
    4c74:	7ff00a93          	li	s5,2047
    4c78:	00300b13          	li	s6,3
    4c7c:	eedff06f          	j	4b68 <__divdf3+0x74>
    4c80:	0174ef33          	or	t5,s1,s7
    4c84:	080f0263          	beqz	t5,4d08 <__divdf3+0x214>
    4c88:	04048063          	beqz	s1,4cc8 <__divdf3+0x1d4>
    4c8c:	00048513          	mv	a0,s1
    4c90:	66c010ef          	jal	62fc <__clzsi2>
    4c94:	ff550713          	addi	a4,a0,-11
    4c98:	01d00793          	li	a5,29
    4c9c:	ff850693          	addi	a3,a0,-8
    4ca0:	40e787b3          	sub	a5,a5,a4
    4ca4:	00d494b3          	sll	s1,s1,a3
    4ca8:	00fbd7b3          	srl	a5,s7,a5
    4cac:	0097e7b3          	or	a5,a5,s1
    4cb0:	00db94b3          	sll	s1,s7,a3
    4cb4:	c0d00713          	li	a4,-1011
    4cb8:	00048f13          	mv	t5,s1
    4cbc:	40a70733          	sub	a4,a4,a0
    4cc0:	00078493          	mv	s1,a5
    4cc4:	ee1ff06f          	j	4ba4 <__divdf3+0xb0>
    4cc8:	000b8513          	mv	a0,s7
    4ccc:	630010ef          	jal	62fc <__clzsi2>
    4cd0:	00050793          	mv	a5,a0
    4cd4:	01578713          	addi	a4,a5,21 # 800015 <__stack_top+0x7f36b5>
    4cd8:	01c00693          	li	a3,28
    4cdc:	02050513          	addi	a0,a0,32
    4ce0:	fae6dce3          	bge	a3,a4,4c98 <__divdf3+0x1a4>
    4ce4:	ff878793          	addi	a5,a5,-8
    4ce8:	00fb97b3          	sll	a5,s7,a5
    4cec:	fc9ff06f          	j	4cb4 <__divdf3+0x1c0>
    4cf0:	0174ef33          	or	t5,s1,s7
    4cf4:	020f1263          	bnez	t5,4d18 <__divdf3+0x224>
    4cf8:	00000493          	li	s1,0
    4cfc:	7ff00713          	li	a4,2047
    4d00:	00200793          	li	a5,2
    4d04:	ea5ff06f          	j	4ba8 <__divdf3+0xb4>
    4d08:	00000493          	li	s1,0
    4d0c:	00000713          	li	a4,0
    4d10:	00100793          	li	a5,1
    4d14:	e95ff06f          	j	4ba8 <__divdf3+0xb4>
    4d18:	000b8f13          	mv	t5,s7
    4d1c:	7ff00713          	li	a4,2047
    4d20:	00300793          	li	a5,3
    4d24:	e85ff06f          	j	4ba8 <__divdf3+0xb4>
    4d28:	0144e663          	bltu	s1,s4,4d34 <__divdf3+0x240>
    4d2c:	349a1c63          	bne	s4,s1,5084 <__divdf3+0x590>
    4d30:	35e46a63          	bltu	s0,t5,5084 <__divdf3+0x590>
    4d34:	01fa1693          	slli	a3,s4,0x1f
    4d38:	00145793          	srli	a5,s0,0x1
    4d3c:	01f41713          	slli	a4,s0,0x1f
    4d40:	001a5a13          	srli	s4,s4,0x1
    4d44:	00f6e433          	or	s0,a3,a5
    4d48:	00849893          	slli	a7,s1,0x8
    4d4c:	018f5593          	srli	a1,t5,0x18
    4d50:	0115e5b3          	or	a1,a1,a7
    4d54:	0108d893          	srli	a7,a7,0x10
    4d58:	031a5eb3          	divu	t4,s4,a7
    4d5c:	01059313          	slli	t1,a1,0x10
    4d60:	01035313          	srli	t1,t1,0x10
    4d64:	01045793          	srli	a5,s0,0x10
    4d68:	008f1513          	slli	a0,t5,0x8
    4d6c:	031a7a33          	remu	s4,s4,a7
    4d70:	000e8693          	mv	a3,t4
    4d74:	03d30e33          	mul	t3,t1,t4
    4d78:	010a1a13          	slli	s4,s4,0x10
    4d7c:	0147e7b3          	or	a5,a5,s4
    4d80:	01c7fe63          	bgeu	a5,t3,4d9c <__divdf3+0x2a8>
    4d84:	00f587b3          	add	a5,a1,a5
    4d88:	fffe8693          	addi	a3,t4,-1
    4d8c:	00b7e863          	bltu	a5,a1,4d9c <__divdf3+0x2a8>
    4d90:	01c7f663          	bgeu	a5,t3,4d9c <__divdf3+0x2a8>
    4d94:	ffee8693          	addi	a3,t4,-2
    4d98:	00b787b3          	add	a5,a5,a1
    4d9c:	41c787b3          	sub	a5,a5,t3
    4da0:	0317df33          	divu	t5,a5,a7
    4da4:	01041413          	slli	s0,s0,0x10
    4da8:	01045413          	srli	s0,s0,0x10
    4dac:	0317f7b3          	remu	a5,a5,a7
    4db0:	000f0e13          	mv	t3,t5
    4db4:	03e30eb3          	mul	t4,t1,t5
    4db8:	01079793          	slli	a5,a5,0x10
    4dbc:	00f467b3          	or	a5,s0,a5
    4dc0:	01d7fe63          	bgeu	a5,t4,4ddc <__divdf3+0x2e8>
    4dc4:	00f587b3          	add	a5,a1,a5
    4dc8:	ffff0e13          	addi	t3,t5,-1
    4dcc:	00b7e863          	bltu	a5,a1,4ddc <__divdf3+0x2e8>
    4dd0:	01d7f663          	bgeu	a5,t4,4ddc <__divdf3+0x2e8>
    4dd4:	ffef0e13          	addi	t3,t5,-2
    4dd8:	00b787b3          	add	a5,a5,a1
    4ddc:	01069693          	slli	a3,a3,0x10
    4de0:	00010437          	lui	s0,0x10
    4de4:	01c6e2b3          	or	t0,a3,t3
    4de8:	fff40e13          	addi	t3,s0,-1 # ffff <__stack_top+0x369f>
    4dec:	01c2f6b3          	and	a3,t0,t3
    4df0:	0102df93          	srli	t6,t0,0x10
    4df4:	01c57e33          	and	t3,a0,t3
    4df8:	41d787b3          	sub	a5,a5,t4
    4dfc:	01055e93          	srli	t4,a0,0x10
    4e00:	02de03b3          	mul	t2,t3,a3
    4e04:	03cf84b3          	mul	s1,t6,t3
    4e08:	02de86b3          	mul	a3,t4,a3
    4e0c:	00968f33          	add	t5,a3,s1
    4e10:	0103d693          	srli	a3,t2,0x10
    4e14:	01e686b3          	add	a3,a3,t5
    4e18:	03df8fb3          	mul	t6,t6,t4
    4e1c:	0096f463          	bgeu	a3,s1,4e24 <__divdf3+0x330>
    4e20:	008f8fb3          	add	t6,t6,s0
    4e24:	0106df13          	srli	t5,a3,0x10
    4e28:	01ff0f33          	add	t5,t5,t6
    4e2c:	00010fb7          	lui	t6,0x10
    4e30:	ffff8f93          	addi	t6,t6,-1 # ffff <__stack_top+0x369f>
    4e34:	01f6f6b3          	and	a3,a3,t6
    4e38:	01069693          	slli	a3,a3,0x10
    4e3c:	01f3f3b3          	and	t2,t2,t6
    4e40:	007686b3          	add	a3,a3,t2
    4e44:	01e7e863          	bltu	a5,t5,4e54 <__divdf3+0x360>
    4e48:	00028493          	mv	s1,t0
    4e4c:	05e79863          	bne	a5,t5,4e9c <__divdf3+0x3a8>
    4e50:	04d77663          	bgeu	a4,a3,4e9c <__divdf3+0x3a8>
    4e54:	00a70fb3          	add	t6,a4,a0
    4e58:	00efb3b3          	sltu	t2,t6,a4
    4e5c:	00b38433          	add	s0,t2,a1
    4e60:	008787b3          	add	a5,a5,s0
    4e64:	fff28493          	addi	s1,t0,-1
    4e68:	000f8713          	mv	a4,t6
    4e6c:	00f5e663          	bltu	a1,a5,4e78 <__divdf3+0x384>
    4e70:	02f59663          	bne	a1,a5,4e9c <__divdf3+0x3a8>
    4e74:	02039463          	bnez	t2,4e9c <__divdf3+0x3a8>
    4e78:	01e7e663          	bltu	a5,t5,4e84 <__divdf3+0x390>
    4e7c:	02ff1063          	bne	t5,a5,4e9c <__divdf3+0x3a8>
    4e80:	00dffe63          	bgeu	t6,a3,4e9c <__divdf3+0x3a8>
    4e84:	01f50fb3          	add	t6,a0,t6
    4e88:	000f8713          	mv	a4,t6
    4e8c:	00afbfb3          	sltu	t6,t6,a0
    4e90:	00bf8fb3          	add	t6,t6,a1
    4e94:	ffe28493          	addi	s1,t0,-2
    4e98:	01f787b3          	add	a5,a5,t6
    4e9c:	40d706b3          	sub	a3,a4,a3
    4ea0:	41e787b3          	sub	a5,a5,t5
    4ea4:	00d73733          	sltu	a4,a4,a3
    4ea8:	40e787b3          	sub	a5,a5,a4
    4eac:	fff00f13          	li	t5,-1
    4eb0:	12f58663          	beq	a1,a5,4fdc <__divdf3+0x4e8>
    4eb4:	0317dfb3          	divu	t6,a5,a7
    4eb8:	0106d713          	srli	a4,a3,0x10
    4ebc:	0317f7b3          	remu	a5,a5,a7
    4ec0:	03f30f33          	mul	t5,t1,t6
    4ec4:	01079793          	slli	a5,a5,0x10
    4ec8:	00f767b3          	or	a5,a4,a5
    4ecc:	000f8713          	mv	a4,t6
    4ed0:	01e7fe63          	bgeu	a5,t5,4eec <__divdf3+0x3f8>
    4ed4:	00f587b3          	add	a5,a1,a5
    4ed8:	ffff8713          	addi	a4,t6,-1
    4edc:	00b7e863          	bltu	a5,a1,4eec <__divdf3+0x3f8>
    4ee0:	01e7f663          	bgeu	a5,t5,4eec <__divdf3+0x3f8>
    4ee4:	ffef8713          	addi	a4,t6,-2
    4ee8:	00b787b3          	add	a5,a5,a1
    4eec:	41e787b3          	sub	a5,a5,t5
    4ef0:	0317df33          	divu	t5,a5,a7
    4ef4:	01069693          	slli	a3,a3,0x10
    4ef8:	0106d693          	srli	a3,a3,0x10
    4efc:	0317f7b3          	remu	a5,a5,a7
    4f00:	000f0893          	mv	a7,t5
    4f04:	03e30333          	mul	t1,t1,t5
    4f08:	01079793          	slli	a5,a5,0x10
    4f0c:	00f6e7b3          	or	a5,a3,a5
    4f10:	0067fe63          	bgeu	a5,t1,4f2c <__divdf3+0x438>
    4f14:	00f587b3          	add	a5,a1,a5
    4f18:	ffff0893          	addi	a7,t5,-1
    4f1c:	00b7e863          	bltu	a5,a1,4f2c <__divdf3+0x438>
    4f20:	0067f663          	bgeu	a5,t1,4f2c <__divdf3+0x438>
    4f24:	ffef0893          	addi	a7,t5,-2
    4f28:	00b787b3          	add	a5,a5,a1
    4f2c:	01071693          	slli	a3,a4,0x10
    4f30:	0116e6b3          	or	a3,a3,a7
    4f34:	01069713          	slli	a4,a3,0x10
    4f38:	01075713          	srli	a4,a4,0x10
    4f3c:	406787b3          	sub	a5,a5,t1
    4f40:	0106d313          	srli	t1,a3,0x10
    4f44:	03c70f33          	mul	t5,a4,t3
    4f48:	03c30e33          	mul	t3,t1,t3
    4f4c:	026e8333          	mul	t1,t4,t1
    4f50:	02ee8eb3          	mul	t4,t4,a4
    4f54:	010f5713          	srli	a4,t5,0x10
    4f58:	01ce8eb3          	add	t4,t4,t3
    4f5c:	01d70733          	add	a4,a4,t4
    4f60:	01c77663          	bgeu	a4,t3,4f6c <__divdf3+0x478>
    4f64:	000108b7          	lui	a7,0x10
    4f68:	01130333          	add	t1,t1,a7
    4f6c:	01075893          	srli	a7,a4,0x10
    4f70:	006888b3          	add	a7,a7,t1
    4f74:	00010337          	lui	t1,0x10
    4f78:	fff30313          	addi	t1,t1,-1 # ffff <__stack_top+0x369f>
    4f7c:	00677733          	and	a4,a4,t1
    4f80:	01071713          	slli	a4,a4,0x10
    4f84:	006f7f33          	and	t5,t5,t1
    4f88:	01e70733          	add	a4,a4,t5
    4f8c:	0117e863          	bltu	a5,a7,4f9c <__divdf3+0x4a8>
    4f90:	23179c63          	bne	a5,a7,51c8 <__divdf3+0x6d4>
    4f94:	00068f13          	mv	t5,a3
    4f98:	04070263          	beqz	a4,4fdc <__divdf3+0x4e8>
    4f9c:	00f587b3          	add	a5,a1,a5
    4fa0:	fff68f13          	addi	t5,a3,-1
    4fa4:	00078313          	mv	t1,a5
    4fa8:	02b7e463          	bltu	a5,a1,4fd0 <__divdf3+0x4dc>
    4fac:	0117e663          	bltu	a5,a7,4fb8 <__divdf3+0x4c4>
    4fb0:	21179a63          	bne	a5,a7,51c4 <__divdf3+0x6d0>
    4fb4:	02e57063          	bgeu	a0,a4,4fd4 <__divdf3+0x4e0>
    4fb8:	ffe68f13          	addi	t5,a3,-2
    4fbc:	00151693          	slli	a3,a0,0x1
    4fc0:	00a6b333          	sltu	t1,a3,a0
    4fc4:	00b30333          	add	t1,t1,a1
    4fc8:	00678333          	add	t1,a5,t1
    4fcc:	00068513          	mv	a0,a3
    4fd0:	01131463          	bne	t1,a7,4fd8 <__divdf3+0x4e4>
    4fd4:	00a70463          	beq	a4,a0,4fdc <__divdf3+0x4e8>
    4fd8:	001f6f13          	ori	t5,t5,1
    4fdc:	3ff80713          	addi	a4,a6,1023
    4fe0:	10e05263          	blez	a4,50e4 <__divdf3+0x5f0>
    4fe4:	007f7793          	andi	a5,t5,7
    4fe8:	02078063          	beqz	a5,5008 <__divdf3+0x514>
    4fec:	00ff7793          	andi	a5,t5,15
    4ff0:	00400693          	li	a3,4
    4ff4:	00d78a63          	beq	a5,a3,5008 <__divdf3+0x514>
    4ff8:	004f0793          	addi	a5,t5,4
    4ffc:	01e7b6b3          	sltu	a3,a5,t5
    5000:	00d484b3          	add	s1,s1,a3
    5004:	00078f13          	mv	t5,a5
    5008:	00749793          	slli	a5,s1,0x7
    500c:	0007da63          	bgez	a5,5020 <__divdf3+0x52c>
    5010:	ff0007b7          	lui	a5,0xff000
    5014:	fff78793          	addi	a5,a5,-1 # feffffff <__stack_top+0xfeff369f>
    5018:	00f4f4b3          	and	s1,s1,a5
    501c:	40080713          	addi	a4,a6,1024
    5020:	7fe00793          	li	a5,2046
    5024:	08e7ca63          	blt	a5,a4,50b8 <__divdf3+0x5c4>
    5028:	003f5f13          	srli	t5,t5,0x3
    502c:	01d49793          	slli	a5,s1,0x1d
    5030:	01e7ef33          	or	t5,a5,t5
    5034:	0034d513          	srli	a0,s1,0x3
    5038:	00c51513          	slli	a0,a0,0xc
    503c:	02c12083          	lw	ra,44(sp)
    5040:	02812403          	lw	s0,40(sp)
    5044:	00c55513          	srli	a0,a0,0xc
    5048:	01471713          	slli	a4,a4,0x14
    504c:	00a76733          	or	a4,a4,a0
    5050:	01f61613          	slli	a2,a2,0x1f
    5054:	00c767b3          	or	a5,a4,a2
    5058:	02412483          	lw	s1,36(sp)
    505c:	02012903          	lw	s2,32(sp)
    5060:	01c12983          	lw	s3,28(sp)
    5064:	01812a03          	lw	s4,24(sp)
    5068:	01412a83          	lw	s5,20(sp)
    506c:	01012b03          	lw	s6,16(sp)
    5070:	00c12b83          	lw	s7,12(sp)
    5074:	000f0513          	mv	a0,t5
    5078:	00078593          	mv	a1,a5
    507c:	03010113          	addi	sp,sp,48
    5080:	00008067          	ret
    5084:	fff80813          	addi	a6,a6,-1
    5088:	00000713          	li	a4,0
    508c:	cbdff06f          	j	4d48 <__divdf3+0x254>
    5090:	00098613          	mv	a2,s3
    5094:	000a0493          	mv	s1,s4
    5098:	00040f13          	mv	t5,s0
    509c:	000b0793          	mv	a5,s6
    50a0:	00300713          	li	a4,3
    50a4:	0ee78863          	beq	a5,a4,5194 <__divdf3+0x6a0>
    50a8:	00100713          	li	a4,1
    50ac:	0ee78e63          	beq	a5,a4,51a8 <__divdf3+0x6b4>
    50b0:	00200713          	li	a4,2
    50b4:	f2e794e3          	bne	a5,a4,4fdc <__divdf3+0x4e8>
    50b8:	00000513          	li	a0,0
    50bc:	00000f13          	li	t5,0
    50c0:	7ff00713          	li	a4,2047
    50c4:	f75ff06f          	j	5038 <__divdf3+0x544>
    50c8:	00090613          	mv	a2,s2
    50cc:	fd5ff06f          	j	50a0 <__divdf3+0x5ac>
    50d0:	000804b7          	lui	s1,0x80
    50d4:	00000f13          	li	t5,0
    50d8:	00000613          	li	a2,0
    50dc:	00300793          	li	a5,3
    50e0:	fc1ff06f          	j	50a0 <__divdf3+0x5ac>
    50e4:	00100513          	li	a0,1
    50e8:	40e50533          	sub	a0,a0,a4
    50ec:	03800793          	li	a5,56
    50f0:	0aa7cc63          	blt	a5,a0,51a8 <__divdf3+0x6b4>
    50f4:	01f00793          	li	a5,31
    50f8:	06a7c463          	blt	a5,a0,5160 <__divdf3+0x66c>
    50fc:	41e80813          	addi	a6,a6,1054
    5100:	010497b3          	sll	a5,s1,a6
    5104:	00af5733          	srl	a4,t5,a0
    5108:	010f1833          	sll	a6,t5,a6
    510c:	00e7e7b3          	or	a5,a5,a4
    5110:	01003833          	snez	a6,a6
    5114:	0107e7b3          	or	a5,a5,a6
    5118:	00a4d533          	srl	a0,s1,a0
    511c:	0077f713          	andi	a4,a5,7
    5120:	02070063          	beqz	a4,5140 <__divdf3+0x64c>
    5124:	00f7f713          	andi	a4,a5,15
    5128:	00400693          	li	a3,4
    512c:	00d70a63          	beq	a4,a3,5140 <__divdf3+0x64c>
    5130:	00478713          	addi	a4,a5,4
    5134:	00f736b3          	sltu	a3,a4,a5
    5138:	00d50533          	add	a0,a0,a3
    513c:	00070793          	mv	a5,a4
    5140:	00851713          	slli	a4,a0,0x8
    5144:	06074863          	bltz	a4,51b4 <__divdf3+0x6c0>
    5148:	01d51f13          	slli	t5,a0,0x1d
    514c:	0037d793          	srli	a5,a5,0x3
    5150:	00ff6f33          	or	t5,t5,a5
    5154:	00355513          	srli	a0,a0,0x3
    5158:	00000713          	li	a4,0
    515c:	eddff06f          	j	5038 <__divdf3+0x544>
    5160:	fe100793          	li	a5,-31
    5164:	40e787b3          	sub	a5,a5,a4
    5168:	02000693          	li	a3,32
    516c:	00f4d7b3          	srl	a5,s1,a5
    5170:	00000713          	li	a4,0
    5174:	00d50663          	beq	a0,a3,5180 <__divdf3+0x68c>
    5178:	43e80713          	addi	a4,a6,1086
    517c:	00e49733          	sll	a4,s1,a4
    5180:	01e76733          	or	a4,a4,t5
    5184:	00e03733          	snez	a4,a4
    5188:	00e7e7b3          	or	a5,a5,a4
    518c:	00000513          	li	a0,0
    5190:	f8dff06f          	j	511c <__divdf3+0x628>
    5194:	00080537          	lui	a0,0x80
    5198:	00000f13          	li	t5,0
    519c:	7ff00713          	li	a4,2047
    51a0:	00000613          	li	a2,0
    51a4:	e95ff06f          	j	5038 <__divdf3+0x544>
    51a8:	00000513          	li	a0,0
    51ac:	00000f13          	li	t5,0
    51b0:	fa9ff06f          	j	5158 <__divdf3+0x664>
    51b4:	00000513          	li	a0,0
    51b8:	00000f13          	li	t5,0
    51bc:	00100713          	li	a4,1
    51c0:	e79ff06f          	j	5038 <__divdf3+0x544>
    51c4:	000f0693          	mv	a3,t5
    51c8:	00068f13          	mv	t5,a3
    51cc:	e0dff06f          	j	4fd8 <__divdf3+0x4e4>

000051d0 <__gedf2>:
    51d0:	0146d793          	srli	a5,a3,0x14
    51d4:	0145d893          	srli	a7,a1,0x14
    51d8:	00100737          	lui	a4,0x100
    51dc:	fff70713          	addi	a4,a4,-1 # fffff <__stack_top+0xf369f>
    51e0:	00050813          	mv	a6,a0
    51e4:	00050e13          	mv	t3,a0
    51e8:	7ff8f893          	andi	a7,a7,2047
    51ec:	7ff7f513          	andi	a0,a5,2047
    51f0:	7ff00793          	li	a5,2047
    51f4:	00b77333          	and	t1,a4,a1
    51f8:	00060e93          	mv	t4,a2
    51fc:	00d77733          	and	a4,a4,a3
    5200:	01f5d593          	srli	a1,a1,0x1f
    5204:	01f6d693          	srli	a3,a3,0x1f
    5208:	00f89663          	bne	a7,a5,5214 <__gedf2+0x44>
    520c:	010367b3          	or	a5,t1,a6
    5210:	06079c63          	bnez	a5,5288 <__gedf2+0xb8>
    5214:	7ff00793          	li	a5,2047
    5218:	00f51663          	bne	a0,a5,5224 <__gedf2+0x54>
    521c:	00c767b3          	or	a5,a4,a2
    5220:	06079463          	bnez	a5,5288 <__gedf2+0xb8>
    5224:	00000793          	li	a5,0
    5228:	00089663          	bnez	a7,5234 <__gedf2+0x64>
    522c:	01036833          	or	a6,t1,a6
    5230:	00183793          	seqz	a5,a6
    5234:	04051e63          	bnez	a0,5290 <__gedf2+0xc0>
    5238:	00c76633          	or	a2,a4,a2
    523c:	00078c63          	beqz	a5,5254 <__gedf2+0x84>
    5240:	02060063          	beqz	a2,5260 <__gedf2+0x90>
    5244:	00100513          	li	a0,1
    5248:	00069c63          	bnez	a3,5260 <__gedf2+0x90>
    524c:	fff00513          	li	a0,-1
    5250:	00008067          	ret
    5254:	04061063          	bnez	a2,5294 <__gedf2+0xc4>
    5258:	fff00513          	li	a0,-1
    525c:	04058463          	beqz	a1,52a4 <__gedf2+0xd4>
    5260:	00008067          	ret
    5264:	fea8c0e3          	blt	a7,a0,5244 <__gedf2+0x74>
    5268:	fe6768e3          	bltu	a4,t1,5258 <__gedf2+0x88>
    526c:	00e31863          	bne	t1,a4,527c <__gedf2+0xac>
    5270:	ffcee4e3          	bltu	t4,t3,5258 <__gedf2+0x88>
    5274:	00000513          	li	a0,0
    5278:	ffde74e3          	bgeu	t3,t4,5260 <__gedf2+0x90>
    527c:	00100513          	li	a0,1
    5280:	fe0590e3          	bnez	a1,5260 <__gedf2+0x90>
    5284:	fc9ff06f          	j	524c <__gedf2+0x7c>
    5288:	ffe00513          	li	a0,-2
    528c:	00008067          	ret
    5290:	fa079ae3          	bnez	a5,5244 <__gedf2+0x74>
    5294:	fcb692e3          	bne	a3,a1,5258 <__gedf2+0x88>
    5298:	fd1556e3          	bge	a0,a7,5264 <__gedf2+0x94>
    529c:	fff00513          	li	a0,-1
    52a0:	fc0690e3          	bnez	a3,5260 <__gedf2+0x90>
    52a4:	00100513          	li	a0,1
    52a8:	00008067          	ret

000052ac <__ledf2>:
    52ac:	0146d793          	srli	a5,a3,0x14
    52b0:	0145d893          	srli	a7,a1,0x14
    52b4:	00100737          	lui	a4,0x100
    52b8:	fff70713          	addi	a4,a4,-1 # fffff <__stack_top+0xf369f>
    52bc:	00050813          	mv	a6,a0
    52c0:	00050e13          	mv	t3,a0
    52c4:	7ff8f893          	andi	a7,a7,2047
    52c8:	7ff7f513          	andi	a0,a5,2047
    52cc:	7ff00793          	li	a5,2047
    52d0:	00b77333          	and	t1,a4,a1
    52d4:	00060e93          	mv	t4,a2
    52d8:	00d77733          	and	a4,a4,a3
    52dc:	01f5d593          	srli	a1,a1,0x1f
    52e0:	01f6d693          	srli	a3,a3,0x1f
    52e4:	00f89663          	bne	a7,a5,52f0 <__ledf2+0x44>
    52e8:	010367b3          	or	a5,t1,a6
    52ec:	06079c63          	bnez	a5,5364 <__ledf2+0xb8>
    52f0:	7ff00793          	li	a5,2047
    52f4:	00f51663          	bne	a0,a5,5300 <__ledf2+0x54>
    52f8:	00c767b3          	or	a5,a4,a2
    52fc:	06079463          	bnez	a5,5364 <__ledf2+0xb8>
    5300:	00000793          	li	a5,0
    5304:	00089663          	bnez	a7,5310 <__ledf2+0x64>
    5308:	01036833          	or	a6,t1,a6
    530c:	00183793          	seqz	a5,a6
    5310:	04051e63          	bnez	a0,536c <__ledf2+0xc0>
    5314:	00c76633          	or	a2,a4,a2
    5318:	00078c63          	beqz	a5,5330 <__ledf2+0x84>
    531c:	02060063          	beqz	a2,533c <__ledf2+0x90>
    5320:	00100513          	li	a0,1
    5324:	00069c63          	bnez	a3,533c <__ledf2+0x90>
    5328:	fff00513          	li	a0,-1
    532c:	00008067          	ret
    5330:	04061063          	bnez	a2,5370 <__ledf2+0xc4>
    5334:	fff00513          	li	a0,-1
    5338:	04058463          	beqz	a1,5380 <__ledf2+0xd4>
    533c:	00008067          	ret
    5340:	fea8c0e3          	blt	a7,a0,5320 <__ledf2+0x74>
    5344:	fe6768e3          	bltu	a4,t1,5334 <__ledf2+0x88>
    5348:	00e31863          	bne	t1,a4,5358 <__ledf2+0xac>
    534c:	ffcee4e3          	bltu	t4,t3,5334 <__ledf2+0x88>
    5350:	00000513          	li	a0,0
    5354:	ffde74e3          	bgeu	t3,t4,533c <__ledf2+0x90>
    5358:	00100513          	li	a0,1
    535c:	fe0590e3          	bnez	a1,533c <__ledf2+0x90>
    5360:	fc9ff06f          	j	5328 <__ledf2+0x7c>
    5364:	00200513          	li	a0,2
    5368:	00008067          	ret
    536c:	fa079ae3          	bnez	a5,5320 <__ledf2+0x74>
    5370:	fcb692e3          	bne	a3,a1,5334 <__ledf2+0x88>
    5374:	fd1556e3          	bge	a0,a7,5340 <__ledf2+0x94>
    5378:	fff00513          	li	a0,-1
    537c:	fc0690e3          	bnez	a3,533c <__ledf2+0x90>
    5380:	00100513          	li	a0,1
    5384:	00008067          	ret

00005388 <__muldf3>:
    5388:	fd010113          	addi	sp,sp,-48
    538c:	01512a23          	sw	s5,20(sp)
    5390:	0145da93          	srli	s5,a1,0x14
    5394:	02812423          	sw	s0,40(sp)
    5398:	02912223          	sw	s1,36(sp)
    539c:	01312e23          	sw	s3,28(sp)
    53a0:	01412c23          	sw	s4,24(sp)
    53a4:	01612823          	sw	s6,16(sp)
    53a8:	00c59493          	slli	s1,a1,0xc
    53ac:	02112623          	sw	ra,44(sp)
    53b0:	03212023          	sw	s2,32(sp)
    53b4:	01712623          	sw	s7,12(sp)
    53b8:	7ffafa93          	andi	s5,s5,2047
    53bc:	00050413          	mv	s0,a0
    53c0:	00060b13          	mv	s6,a2
    53c4:	00068993          	mv	s3,a3
    53c8:	00c4d493          	srli	s1,s1,0xc
    53cc:	01f5da13          	srli	s4,a1,0x1f
    53d0:	240a8e63          	beqz	s5,562c <__muldf3+0x2a4>
    53d4:	7ff00793          	li	a5,2047
    53d8:	2cfa8063          	beq	s5,a5,5698 <__muldf3+0x310>
    53dc:	00349493          	slli	s1,s1,0x3
    53e0:	01d55793          	srli	a5,a0,0x1d
    53e4:	0097e7b3          	or	a5,a5,s1
    53e8:	008004b7          	lui	s1,0x800
    53ec:	0097e4b3          	or	s1,a5,s1
    53f0:	00351913          	slli	s2,a0,0x3
    53f4:	c01a8a93          	addi	s5,s5,-1023
    53f8:	00000b93          	li	s7,0
    53fc:	0149d713          	srli	a4,s3,0x14
    5400:	00c99413          	slli	s0,s3,0xc
    5404:	7ff77713          	andi	a4,a4,2047
    5408:	00c45413          	srli	s0,s0,0xc
    540c:	01f9d993          	srli	s3,s3,0x1f
    5410:	2c070063          	beqz	a4,56d0 <__muldf3+0x348>
    5414:	7ff00793          	li	a5,2047
    5418:	32f70463          	beq	a4,a5,5740 <__muldf3+0x3b8>
    541c:	00341413          	slli	s0,s0,0x3
    5420:	01db5793          	srli	a5,s6,0x1d
    5424:	0087e7b3          	or	a5,a5,s0
    5428:	00800437          	lui	s0,0x800
    542c:	0087e433          	or	s0,a5,s0
    5430:	c0170693          	addi	a3,a4,-1023
    5434:	003b1793          	slli	a5,s6,0x3
    5438:	00000713          	li	a4,0
    543c:	00da8ab3          	add	s5,s5,a3
    5440:	002b9693          	slli	a3,s7,0x2
    5444:	00e6e6b3          	or	a3,a3,a4
    5448:	00a00613          	li	a2,10
    544c:	001a8513          	addi	a0,s5,1
    5450:	40d64663          	blt	a2,a3,585c <__muldf3+0x4d4>
    5454:	00200613          	li	a2,2
    5458:	013a45b3          	xor	a1,s4,s3
    545c:	30d64e63          	blt	a2,a3,5778 <__muldf3+0x3f0>
    5460:	fff68693          	addi	a3,a3,-1
    5464:	00100613          	li	a2,1
    5468:	32d67a63          	bgeu	a2,a3,579c <__muldf3+0x414>
    546c:	00010337          	lui	t1,0x10
    5470:	fff30e13          	addi	t3,t1,-1 # ffff <__stack_top+0x369f>
    5474:	01095713          	srli	a4,s2,0x10
    5478:	0107d893          	srli	a7,a5,0x10
    547c:	01c97933          	and	s2,s2,t3
    5480:	01c7ff33          	and	t5,a5,t3
    5484:	03e907b3          	mul	a5,s2,t5
    5488:	03e70eb3          	mul	t4,a4,t5
    548c:	0107d813          	srli	a6,a5,0x10
    5490:	03288633          	mul	a2,a7,s2
    5494:	01d60633          	add	a2,a2,t4
    5498:	00c80833          	add	a6,a6,a2
    549c:	031706b3          	mul	a3,a4,a7
    54a0:	01d87463          	bgeu	a6,t4,54a8 <__muldf3+0x120>
    54a4:	006686b3          	add	a3,a3,t1
    54a8:	01085293          	srli	t0,a6,0x10
    54ac:	01c87833          	and	a6,a6,t3
    54b0:	01c7f7b3          	and	a5,a5,t3
    54b4:	01045613          	srli	a2,s0,0x10
    54b8:	01c47e33          	and	t3,s0,t3
    54bc:	01081813          	slli	a6,a6,0x10
    54c0:	00f80833          	add	a6,a6,a5
    54c4:	03c90eb3          	mul	t4,s2,t3
    54c8:	03c707b3          	mul	a5,a4,t3
    54cc:	03260933          	mul	s2,a2,s2
    54d0:	02c70333          	mul	t1,a4,a2
    54d4:	00f90933          	add	s2,s2,a5
    54d8:	010ed713          	srli	a4,t4,0x10
    54dc:	01270733          	add	a4,a4,s2
    54e0:	00f77663          	bgeu	a4,a5,54ec <__muldf3+0x164>
    54e4:	000107b7          	lui	a5,0x10
    54e8:	00f30333          	add	t1,t1,a5
    54ec:	00010437          	lui	s0,0x10
    54f0:	01075793          	srli	a5,a4,0x10
    54f4:	fff40f93          	addi	t6,s0,-1 # ffff <__stack_top+0x369f>
    54f8:	00678333          	add	t1,a5,t1
    54fc:	01f777b3          	and	a5,a4,t6
    5500:	01fefeb3          	and	t4,t4,t6
    5504:	01079793          	slli	a5,a5,0x10
    5508:	01f4ffb3          	and	t6,s1,t6
    550c:	01d787b3          	add	a5,a5,t4
    5510:	0104de93          	srli	t4,s1,0x10
    5514:	03ff03b3          	mul	t2,t5,t6
    5518:	00f282b3          	add	t0,t0,a5
    551c:	03ee8f33          	mul	t5,t4,t5
    5520:	0103d713          	srli	a4,t2,0x10
    5524:	03d884b3          	mul	s1,a7,t4
    5528:	03f888b3          	mul	a7,a7,t6
    552c:	01e888b3          	add	a7,a7,t5
    5530:	01170733          	add	a4,a4,a7
    5534:	01e77463          	bgeu	a4,t5,553c <__muldf3+0x1b4>
    5538:	008484b3          	add	s1,s1,s0
    553c:	01075f13          	srli	t5,a4,0x10
    5540:	009f0f33          	add	t5,t5,s1
    5544:	000104b7          	lui	s1,0x10
    5548:	fff48413          	addi	s0,s1,-1 # ffff <__stack_top+0x369f>
    554c:	00877733          	and	a4,a4,s0
    5550:	0083f3b3          	and	t2,t2,s0
    5554:	01071713          	slli	a4,a4,0x10
    5558:	007708b3          	add	a7,a4,t2
    555c:	03fe03b3          	mul	t2,t3,t6
    5560:	03ce8e33          	mul	t3,t4,t3
    5564:	03d60eb3          	mul	t4,a2,t4
    5568:	03f60633          	mul	a2,a2,t6
    556c:	0103df93          	srli	t6,t2,0x10
    5570:	01c60633          	add	a2,a2,t3
    5574:	00cf8fb3          	add	t6,t6,a2
    5578:	01cff463          	bgeu	t6,t3,5580 <__muldf3+0x1f8>
    557c:	009e8eb3          	add	t4,t4,s1
    5580:	008ff733          	and	a4,t6,s0
    5584:	0083f3b3          	and	t2,t2,s0
    5588:	01071713          	slli	a4,a4,0x10
    558c:	005686b3          	add	a3,a3,t0
    5590:	00770733          	add	a4,a4,t2
    5594:	00670333          	add	t1,a4,t1
    5598:	00f6b7b3          	sltu	a5,a3,a5
    559c:	00f307b3          	add	a5,t1,a5
    55a0:	00e33633          	sltu	a2,t1,a4
    55a4:	011688b3          	add	a7,a3,a7
    55a8:	0067b333          	sltu	t1,a5,t1
    55ac:	00666633          	or	a2,a2,t1
    55b0:	00d8b6b3          	sltu	a3,a7,a3
    55b4:	01e78333          	add	t1,a5,t5
    55b8:	00d306b3          	add	a3,t1,a3
    55bc:	00f33733          	sltu	a4,t1,a5
    55c0:	010fdf93          	srli	t6,t6,0x10
    55c4:	0066b333          	sltu	t1,a3,t1
    55c8:	00989793          	slli	a5,a7,0x9
    55cc:	01f60633          	add	a2,a2,t6
    55d0:	00676733          	or	a4,a4,t1
    55d4:	00c70733          	add	a4,a4,a2
    55d8:	0107e7b3          	or	a5,a5,a6
    55dc:	01d70733          	add	a4,a4,t4
    55e0:	00f037b3          	snez	a5,a5
    55e4:	0178d893          	srli	a7,a7,0x17
    55e8:	00971713          	slli	a4,a4,0x9
    55ec:	0176d413          	srli	s0,a3,0x17
    55f0:	0117e7b3          	or	a5,a5,a7
    55f4:	00969693          	slli	a3,a3,0x9
    55f8:	00d7e7b3          	or	a5,a5,a3
    55fc:	00771693          	slli	a3,a4,0x7
    5600:	00876433          	or	s0,a4,s0
    5604:	0206d063          	bgez	a3,5624 <__muldf3+0x29c>
    5608:	0017d713          	srli	a4,a5,0x1
    560c:	0017f793          	andi	a5,a5,1
    5610:	00f76733          	or	a4,a4,a5
    5614:	01f41793          	slli	a5,s0,0x1f
    5618:	00f767b3          	or	a5,a4,a5
    561c:	00145413          	srli	s0,s0,0x1
    5620:	00050a93          	mv	s5,a0
    5624:	000a8513          	mv	a0,s5
    5628:	18c0006f          	j	57b4 <__muldf3+0x42c>
    562c:	00a4e933          	or	s2,s1,a0
    5630:	08090063          	beqz	s2,56b0 <__muldf3+0x328>
    5634:	04048063          	beqz	s1,5674 <__muldf3+0x2ec>
    5638:	00048513          	mv	a0,s1
    563c:	4c1000ef          	jal	62fc <__clzsi2>
    5640:	ff550713          	addi	a4,a0,-11 # 7fff5 <__stack_top+0x73695>
    5644:	01d00793          	li	a5,29
    5648:	ff850693          	addi	a3,a0,-8
    564c:	40e787b3          	sub	a5,a5,a4
    5650:	00d494b3          	sll	s1,s1,a3
    5654:	00f457b3          	srl	a5,s0,a5
    5658:	0097e7b3          	or	a5,a5,s1
    565c:	00d414b3          	sll	s1,s0,a3
    5660:	c0d00a93          	li	s5,-1011
    5664:	00048913          	mv	s2,s1
    5668:	40aa8ab3          	sub	s5,s5,a0
    566c:	00078493          	mv	s1,a5
    5670:	d89ff06f          	j	53f8 <__muldf3+0x70>
    5674:	489000ef          	jal	62fc <__clzsi2>
    5678:	00050793          	mv	a5,a0
    567c:	01578713          	addi	a4,a5,21 # 10015 <__stack_top+0x36b5>
    5680:	01c00693          	li	a3,28
    5684:	02050513          	addi	a0,a0,32
    5688:	fae6dee3          	bge	a3,a4,5644 <__muldf3+0x2bc>
    568c:	ff878793          	addi	a5,a5,-8
    5690:	00f417b3          	sll	a5,s0,a5
    5694:	fcdff06f          	j	5660 <__muldf3+0x2d8>
    5698:	00a4e933          	or	s2,s1,a0
    569c:	02091263          	bnez	s2,56c0 <__muldf3+0x338>
    56a0:	00000493          	li	s1,0
    56a4:	7ff00a93          	li	s5,2047
    56a8:	00200b93          	li	s7,2
    56ac:	d51ff06f          	j	53fc <__muldf3+0x74>
    56b0:	00000493          	li	s1,0
    56b4:	00000a93          	li	s5,0
    56b8:	00100b93          	li	s7,1
    56bc:	d41ff06f          	j	53fc <__muldf3+0x74>
    56c0:	00050913          	mv	s2,a0
    56c4:	7ff00a93          	li	s5,2047
    56c8:	00300b93          	li	s7,3
    56cc:	d31ff06f          	j	53fc <__muldf3+0x74>
    56d0:	016467b3          	or	a5,s0,s6
    56d4:	08078263          	beqz	a5,5758 <__muldf3+0x3d0>
    56d8:	04040063          	beqz	s0,5718 <__muldf3+0x390>
    56dc:	00040513          	mv	a0,s0
    56e0:	41d000ef          	jal	62fc <__clzsi2>
    56e4:	ff550693          	addi	a3,a0,-11
    56e8:	01d00713          	li	a4,29
    56ec:	ff850793          	addi	a5,a0,-8
    56f0:	40d70733          	sub	a4,a4,a3
    56f4:	00f41433          	sll	s0,s0,a5
    56f8:	00eb5733          	srl	a4,s6,a4
    56fc:	00876733          	or	a4,a4,s0
    5700:	00fb1433          	sll	s0,s6,a5
    5704:	c0d00693          	li	a3,-1011
    5708:	00040793          	mv	a5,s0
    570c:	40a686b3          	sub	a3,a3,a0
    5710:	00070413          	mv	s0,a4
    5714:	d25ff06f          	j	5438 <__muldf3+0xb0>
    5718:	000b0513          	mv	a0,s6
    571c:	3e1000ef          	jal	62fc <__clzsi2>
    5720:	00050793          	mv	a5,a0
    5724:	01578693          	addi	a3,a5,21
    5728:	01c00713          	li	a4,28
    572c:	02050513          	addi	a0,a0,32
    5730:	fad75ce3          	bge	a4,a3,56e8 <__muldf3+0x360>
    5734:	ff878793          	addi	a5,a5,-8
    5738:	00fb1733          	sll	a4,s6,a5
    573c:	fc9ff06f          	j	5704 <__muldf3+0x37c>
    5740:	016467b3          	or	a5,s0,s6
    5744:	02079263          	bnez	a5,5768 <__muldf3+0x3e0>
    5748:	00000413          	li	s0,0
    574c:	7ff00693          	li	a3,2047
    5750:	00200713          	li	a4,2
    5754:	ce9ff06f          	j	543c <__muldf3+0xb4>
    5758:	00000413          	li	s0,0
    575c:	00000693          	li	a3,0
    5760:	00100713          	li	a4,1
    5764:	cd9ff06f          	j	543c <__muldf3+0xb4>
    5768:	000b0793          	mv	a5,s6
    576c:	7ff00693          	li	a3,2047
    5770:	00300713          	li	a4,3
    5774:	cc9ff06f          	j	543c <__muldf3+0xb4>
    5778:	00100613          	li	a2,1
    577c:	00d61633          	sll	a2,a2,a3
    5780:	53067693          	andi	a3,a2,1328
    5784:	0e069663          	bnez	a3,5870 <__muldf3+0x4e8>
    5788:	24067813          	andi	a6,a2,576
    578c:	1a081a63          	bnez	a6,5940 <__muldf3+0x5b8>
    5790:	08867613          	andi	a2,a2,136
    5794:	cc060ce3          	beqz	a2,546c <__muldf3+0xe4>
    5798:	00098593          	mv	a1,s3
    579c:	00200693          	li	a3,2
    57a0:	18d70863          	beq	a4,a3,5930 <__muldf3+0x5a8>
    57a4:	00300693          	li	a3,3
    57a8:	1ad70463          	beq	a4,a3,5950 <__muldf3+0x5c8>
    57ac:	00100693          	li	a3,1
    57b0:	1ad70663          	beq	a4,a3,595c <__muldf3+0x5d4>
    57b4:	3ff50613          	addi	a2,a0,1023
    57b8:	0cc05463          	blez	a2,5880 <__muldf3+0x4f8>
    57bc:	0077f713          	andi	a4,a5,7
    57c0:	02070063          	beqz	a4,57e0 <__muldf3+0x458>
    57c4:	00f7f713          	andi	a4,a5,15
    57c8:	00400693          	li	a3,4
    57cc:	00d70a63          	beq	a4,a3,57e0 <__muldf3+0x458>
    57d0:	00478713          	addi	a4,a5,4
    57d4:	00f736b3          	sltu	a3,a4,a5
    57d8:	00d40433          	add	s0,s0,a3
    57dc:	00070793          	mv	a5,a4
    57e0:	00741713          	slli	a4,s0,0x7
    57e4:	00075a63          	bgez	a4,57f8 <__muldf3+0x470>
    57e8:	ff000737          	lui	a4,0xff000
    57ec:	fff70713          	addi	a4,a4,-1 # feffffff <__stack_top+0xfeff369f>
    57f0:	00e47433          	and	s0,s0,a4
    57f4:	40050613          	addi	a2,a0,1024
    57f8:	7fe00713          	li	a4,2046
    57fc:	12c74a63          	blt	a4,a2,5930 <__muldf3+0x5a8>
    5800:	0037d793          	srli	a5,a5,0x3
    5804:	01d41693          	slli	a3,s0,0x1d
    5808:	00f6e6b3          	or	a3,a3,a5
    580c:	00345713          	srli	a4,s0,0x3
    5810:	00c71713          	slli	a4,a4,0xc
    5814:	02c12083          	lw	ra,44(sp)
    5818:	02812403          	lw	s0,40(sp)
    581c:	01461613          	slli	a2,a2,0x14
    5820:	00c75713          	srli	a4,a4,0xc
    5824:	01f59593          	slli	a1,a1,0x1f
    5828:	00e66633          	or	a2,a2,a4
    582c:	00b667b3          	or	a5,a2,a1
    5830:	02412483          	lw	s1,36(sp)
    5834:	02012903          	lw	s2,32(sp)
    5838:	01c12983          	lw	s3,28(sp)
    583c:	01812a03          	lw	s4,24(sp)
    5840:	01412a83          	lw	s5,20(sp)
    5844:	01012b03          	lw	s6,16(sp)
    5848:	00c12b83          	lw	s7,12(sp)
    584c:	00068513          	mv	a0,a3
    5850:	00078593          	mv	a1,a5
    5854:	03010113          	addi	sp,sp,48
    5858:	00008067          	ret
    585c:	00f00613          	li	a2,15
    5860:	0ec68863          	beq	a3,a2,5950 <__muldf3+0x5c8>
    5864:	00b00613          	li	a2,11
    5868:	000a0593          	mv	a1,s4
    586c:	f2c686e3          	beq	a3,a2,5798 <__muldf3+0x410>
    5870:	00048413          	mv	s0,s1
    5874:	00090793          	mv	a5,s2
    5878:	000b8713          	mv	a4,s7
    587c:	f21ff06f          	j	579c <__muldf3+0x414>
    5880:	00100713          	li	a4,1
    5884:	40c70733          	sub	a4,a4,a2
    5888:	03800693          	li	a3,56
    588c:	0ce6c863          	blt	a3,a4,595c <__muldf3+0x5d4>
    5890:	01f00693          	li	a3,31
    5894:	06e6c463          	blt	a3,a4,58fc <__muldf3+0x574>
    5898:	41e50513          	addi	a0,a0,1054
    589c:	00e7d633          	srl	a2,a5,a4
    58a0:	00a416b3          	sll	a3,s0,a0
    58a4:	00a79533          	sll	a0,a5,a0
    58a8:	00c6e6b3          	or	a3,a3,a2
    58ac:	00a03533          	snez	a0,a0
    58b0:	00a6e7b3          	or	a5,a3,a0
    58b4:	00e45733          	srl	a4,s0,a4
    58b8:	0077f693          	andi	a3,a5,7
    58bc:	02068063          	beqz	a3,58dc <__muldf3+0x554>
    58c0:	00f7f693          	andi	a3,a5,15
    58c4:	00400613          	li	a2,4
    58c8:	00c68a63          	beq	a3,a2,58dc <__muldf3+0x554>
    58cc:	00478693          	addi	a3,a5,4
    58d0:	00f6b633          	sltu	a2,a3,a5
    58d4:	00c70733          	add	a4,a4,a2
    58d8:	00068793          	mv	a5,a3
    58dc:	00871693          	slli	a3,a4,0x8
    58e0:	0806c463          	bltz	a3,5968 <__muldf3+0x5e0>
    58e4:	01d71693          	slli	a3,a4,0x1d
    58e8:	0037d793          	srli	a5,a5,0x3
    58ec:	00f6e6b3          	or	a3,a3,a5
    58f0:	00375713          	srli	a4,a4,0x3
    58f4:	00000613          	li	a2,0
    58f8:	f19ff06f          	j	5810 <__muldf3+0x488>
    58fc:	fe100693          	li	a3,-31
    5900:	40c686b3          	sub	a3,a3,a2
    5904:	02000813          	li	a6,32
    5908:	00d456b3          	srl	a3,s0,a3
    590c:	00000613          	li	a2,0
    5910:	01070663          	beq	a4,a6,591c <__muldf3+0x594>
    5914:	43e50613          	addi	a2,a0,1086
    5918:	00c41633          	sll	a2,s0,a2
    591c:	00f66633          	or	a2,a2,a5
    5920:	00c03633          	snez	a2,a2
    5924:	00c6e7b3          	or	a5,a3,a2
    5928:	00000713          	li	a4,0
    592c:	f8dff06f          	j	58b8 <__muldf3+0x530>
    5930:	00000713          	li	a4,0
    5934:	00000693          	li	a3,0
    5938:	7ff00613          	li	a2,2047
    593c:	ed5ff06f          	j	5810 <__muldf3+0x488>
    5940:	00080737          	lui	a4,0x80
    5944:	7ff00613          	li	a2,2047
    5948:	00000593          	li	a1,0
    594c:	ec5ff06f          	j	5810 <__muldf3+0x488>
    5950:	00080737          	lui	a4,0x80
    5954:	00000693          	li	a3,0
    5958:	fedff06f          	j	5944 <__muldf3+0x5bc>
    595c:	00000713          	li	a4,0
    5960:	00000693          	li	a3,0
    5964:	f91ff06f          	j	58f4 <__muldf3+0x56c>
    5968:	00000713          	li	a4,0
    596c:	00000693          	li	a3,0
    5970:	00100613          	li	a2,1
    5974:	e9dff06f          	j	5810 <__muldf3+0x488>

00005978 <__subdf3>:
    5978:	00100837          	lui	a6,0x100
    597c:	fff80813          	addi	a6,a6,-1 # fffff <__stack_top+0xf369f>
    5980:	fe010113          	addi	sp,sp,-32
    5984:	00b878b3          	and	a7,a6,a1
    5988:	0145d713          	srli	a4,a1,0x14
    598c:	01d55793          	srli	a5,a0,0x1d
    5990:	00d87833          	and	a6,a6,a3
    5994:	01212823          	sw	s2,16(sp)
    5998:	7ff77913          	andi	s2,a4,2047
    599c:	00389713          	slli	a4,a7,0x3
    59a0:	0146d893          	srli	a7,a3,0x14
    59a4:	00912a23          	sw	s1,20(sp)
    59a8:	00e7e7b3          	or	a5,a5,a4
    59ac:	01f5d493          	srli	s1,a1,0x1f
    59b0:	01d65713          	srli	a4,a2,0x1d
    59b4:	00381813          	slli	a6,a6,0x3
    59b8:	00112e23          	sw	ra,28(sp)
    59bc:	00812c23          	sw	s0,24(sp)
    59c0:	01312623          	sw	s3,12(sp)
    59c4:	7ff8f893          	andi	a7,a7,2047
    59c8:	7ff00593          	li	a1,2047
    59cc:	00351513          	slli	a0,a0,0x3
    59d0:	01f6d693          	srli	a3,a3,0x1f
    59d4:	01076733          	or	a4,a4,a6
    59d8:	00361613          	slli	a2,a2,0x3
    59dc:	00b89663          	bne	a7,a1,59e8 <__subdf3+0x70>
    59e0:	00c765b3          	or	a1,a4,a2
    59e4:	00059463          	bnez	a1,59ec <__subdf3+0x74>
    59e8:	0016c693          	xori	a3,a3,1
    59ec:	41190833          	sub	a6,s2,a7
    59f0:	2a969a63          	bne	a3,s1,5ca4 <__subdf3+0x32c>
    59f4:	11005c63          	blez	a6,5b0c <__subdf3+0x194>
    59f8:	04089063          	bnez	a7,5a38 <__subdf3+0xc0>
    59fc:	00c766b3          	or	a3,a4,a2
    5a00:	66068063          	beqz	a3,6060 <__subdf3+0x6e8>
    5a04:	fff80593          	addi	a1,a6,-1
    5a08:	02059063          	bnez	a1,5a28 <__subdf3+0xb0>
    5a0c:	00c50633          	add	a2,a0,a2
    5a10:	00a636b3          	sltu	a3,a2,a0
    5a14:	00e78733          	add	a4,a5,a4
    5a18:	00060513          	mv	a0,a2
    5a1c:	00d707b3          	add	a5,a4,a3
    5a20:	00100913          	li	s2,1
    5a24:	06c0006f          	j	5a90 <__subdf3+0x118>
    5a28:	7ff00693          	li	a3,2047
    5a2c:	02d81063          	bne	a6,a3,5a4c <__subdf3+0xd4>
    5a30:	7ff00913          	li	s2,2047
    5a34:	1f80006f          	j	5c2c <__subdf3+0x2b4>
    5a38:	7ff00693          	li	a3,2047
    5a3c:	1ed90863          	beq	s2,a3,5c2c <__subdf3+0x2b4>
    5a40:	008006b7          	lui	a3,0x800
    5a44:	00d76733          	or	a4,a4,a3
    5a48:	00080593          	mv	a1,a6
    5a4c:	03800693          	li	a3,56
    5a50:	0ab6c863          	blt	a3,a1,5b00 <__subdf3+0x188>
    5a54:	01f00693          	li	a3,31
    5a58:	06b6ca63          	blt	a3,a1,5acc <__subdf3+0x154>
    5a5c:	02000813          	li	a6,32
    5a60:	40b80833          	sub	a6,a6,a1
    5a64:	010716b3          	sll	a3,a4,a6
    5a68:	00b658b3          	srl	a7,a2,a1
    5a6c:	01061833          	sll	a6,a2,a6
    5a70:	0116e6b3          	or	a3,a3,a7
    5a74:	01003833          	snez	a6,a6
    5a78:	0106e6b3          	or	a3,a3,a6
    5a7c:	00b755b3          	srl	a1,a4,a1
    5a80:	00a68533          	add	a0,a3,a0
    5a84:	00f585b3          	add	a1,a1,a5
    5a88:	00d536b3          	sltu	a3,a0,a3
    5a8c:	00d587b3          	add	a5,a1,a3
    5a90:	00879713          	slli	a4,a5,0x8
    5a94:	18075c63          	bgez	a4,5c2c <__subdf3+0x2b4>
    5a98:	00190913          	addi	s2,s2,1
    5a9c:	7ff00713          	li	a4,2047
    5aa0:	5ae90a63          	beq	s2,a4,6054 <__subdf3+0x6dc>
    5aa4:	ff800737          	lui	a4,0xff800
    5aa8:	fff70713          	addi	a4,a4,-1 # ff7fffff <__stack_top+0xff7f369f>
    5aac:	00e7f733          	and	a4,a5,a4
    5ab0:	00155793          	srli	a5,a0,0x1
    5ab4:	00157513          	andi	a0,a0,1
    5ab8:	00a7e7b3          	or	a5,a5,a0
    5abc:	01f71513          	slli	a0,a4,0x1f
    5ac0:	00f56533          	or	a0,a0,a5
    5ac4:	00175793          	srli	a5,a4,0x1
    5ac8:	1640006f          	j	5c2c <__subdf3+0x2b4>
    5acc:	fe058693          	addi	a3,a1,-32
    5ad0:	02000893          	li	a7,32
    5ad4:	00d756b3          	srl	a3,a4,a3
    5ad8:	00000813          	li	a6,0
    5adc:	01158863          	beq	a1,a7,5aec <__subdf3+0x174>
    5ae0:	04000813          	li	a6,64
    5ae4:	40b80833          	sub	a6,a6,a1
    5ae8:	01071833          	sll	a6,a4,a6
    5aec:	00c86833          	or	a6,a6,a2
    5af0:	01003833          	snez	a6,a6
    5af4:	0106e6b3          	or	a3,a3,a6
    5af8:	00000593          	li	a1,0
    5afc:	f85ff06f          	j	5a80 <__subdf3+0x108>
    5b00:	00c766b3          	or	a3,a4,a2
    5b04:	00d036b3          	snez	a3,a3
    5b08:	ff1ff06f          	j	5af8 <__subdf3+0x180>
    5b0c:	0c080a63          	beqz	a6,5be0 <__subdf3+0x268>
    5b10:	412886b3          	sub	a3,a7,s2
    5b14:	02091463          	bnez	s2,5b3c <__subdf3+0x1c4>
    5b18:	00a7e5b3          	or	a1,a5,a0
    5b1c:	50058e63          	beqz	a1,6038 <__subdf3+0x6c0>
    5b20:	fff68593          	addi	a1,a3,-1 # 7fffff <__stack_top+0x7f369f>
    5b24:	ee0584e3          	beqz	a1,5a0c <__subdf3+0x94>
    5b28:	7ff00813          	li	a6,2047
    5b2c:	03069263          	bne	a3,a6,5b50 <__subdf3+0x1d8>
    5b30:	00070793          	mv	a5,a4
    5b34:	00060513          	mv	a0,a2
    5b38:	ef9ff06f          	j	5a30 <__subdf3+0xb8>
    5b3c:	7ff00593          	li	a1,2047
    5b40:	feb888e3          	beq	a7,a1,5b30 <__subdf3+0x1b8>
    5b44:	008005b7          	lui	a1,0x800
    5b48:	00b7e7b3          	or	a5,a5,a1
    5b4c:	00068593          	mv	a1,a3
    5b50:	03800693          	li	a3,56
    5b54:	08b6c063          	blt	a3,a1,5bd4 <__subdf3+0x25c>
    5b58:	01f00693          	li	a3,31
    5b5c:	04b6c263          	blt	a3,a1,5ba0 <__subdf3+0x228>
    5b60:	02000813          	li	a6,32
    5b64:	40b80833          	sub	a6,a6,a1
    5b68:	010796b3          	sll	a3,a5,a6
    5b6c:	00b55333          	srl	t1,a0,a1
    5b70:	01051833          	sll	a6,a0,a6
    5b74:	0066e6b3          	or	a3,a3,t1
    5b78:	01003833          	snez	a6,a6
    5b7c:	0106e6b3          	or	a3,a3,a6
    5b80:	00b7d5b3          	srl	a1,a5,a1
    5b84:	00c68633          	add	a2,a3,a2
    5b88:	00e585b3          	add	a1,a1,a4
    5b8c:	00d636b3          	sltu	a3,a2,a3
    5b90:	00060513          	mv	a0,a2
    5b94:	00d587b3          	add	a5,a1,a3
    5b98:	00088913          	mv	s2,a7
    5b9c:	ef5ff06f          	j	5a90 <__subdf3+0x118>
    5ba0:	fe058693          	addi	a3,a1,-32 # 7fffe0 <__stack_top+0x7f3680>
    5ba4:	02000313          	li	t1,32
    5ba8:	00d7d6b3          	srl	a3,a5,a3
    5bac:	00000813          	li	a6,0
    5bb0:	00658863          	beq	a1,t1,5bc0 <__subdf3+0x248>
    5bb4:	04000813          	li	a6,64
    5bb8:	40b80833          	sub	a6,a6,a1
    5bbc:	01079833          	sll	a6,a5,a6
    5bc0:	00a86833          	or	a6,a6,a0
    5bc4:	01003833          	snez	a6,a6
    5bc8:	0106e6b3          	or	a3,a3,a6
    5bcc:	00000593          	li	a1,0
    5bd0:	fb5ff06f          	j	5b84 <__subdf3+0x20c>
    5bd4:	00a7e6b3          	or	a3,a5,a0
    5bd8:	00d036b3          	snez	a3,a3
    5bdc:	ff1ff06f          	j	5bcc <__subdf3+0x254>
    5be0:	00190693          	addi	a3,s2,1
    5be4:	7fe6f593          	andi	a1,a3,2046
    5be8:	08059663          	bnez	a1,5c74 <__subdf3+0x2fc>
    5bec:	00a7e6b3          	or	a3,a5,a0
    5bf0:	06091263          	bnez	s2,5c54 <__subdf3+0x2dc>
    5bf4:	44068863          	beqz	a3,6044 <__subdf3+0x6cc>
    5bf8:	00c766b3          	or	a3,a4,a2
    5bfc:	02068863          	beqz	a3,5c2c <__subdf3+0x2b4>
    5c00:	00c50633          	add	a2,a0,a2
    5c04:	00a636b3          	sltu	a3,a2,a0
    5c08:	00e78733          	add	a4,a5,a4
    5c0c:	00d707b3          	add	a5,a4,a3
    5c10:	00879713          	slli	a4,a5,0x8
    5c14:	00060513          	mv	a0,a2
    5c18:	00075a63          	bgez	a4,5c2c <__subdf3+0x2b4>
    5c1c:	ff800737          	lui	a4,0xff800
    5c20:	fff70713          	addi	a4,a4,-1 # ff7fffff <__stack_top+0xff7f369f>
    5c24:	00e7f7b3          	and	a5,a5,a4
    5c28:	00100913          	li	s2,1
    5c2c:	00757713          	andi	a4,a0,7
    5c30:	44070863          	beqz	a4,6080 <__subdf3+0x708>
    5c34:	00f57713          	andi	a4,a0,15
    5c38:	00400693          	li	a3,4
    5c3c:	44d70263          	beq	a4,a3,6080 <__subdf3+0x708>
    5c40:	00450713          	addi	a4,a0,4
    5c44:	00a736b3          	sltu	a3,a4,a0
    5c48:	00d787b3          	add	a5,a5,a3
    5c4c:	00070513          	mv	a0,a4
    5c50:	4300006f          	j	6080 <__subdf3+0x708>
    5c54:	ec068ee3          	beqz	a3,5b30 <__subdf3+0x1b8>
    5c58:	00c76633          	or	a2,a4,a2
    5c5c:	dc060ae3          	beqz	a2,5a30 <__subdf3+0xb8>
    5c60:	00000493          	li	s1,0
    5c64:	004007b7          	lui	a5,0x400
    5c68:	00000513          	li	a0,0
    5c6c:	7ff00913          	li	s2,2047
    5c70:	4100006f          	j	6080 <__subdf3+0x708>
    5c74:	7ff00593          	li	a1,2047
    5c78:	3cb68c63          	beq	a3,a1,6050 <__subdf3+0x6d8>
    5c7c:	00c50633          	add	a2,a0,a2
    5c80:	00a63533          	sltu	a0,a2,a0
    5c84:	00e78733          	add	a4,a5,a4
    5c88:	00a70733          	add	a4,a4,a0
    5c8c:	01f71513          	slli	a0,a4,0x1f
    5c90:	00165613          	srli	a2,a2,0x1
    5c94:	00c56533          	or	a0,a0,a2
    5c98:	00175793          	srli	a5,a4,0x1
    5c9c:	00068913          	mv	s2,a3
    5ca0:	f8dff06f          	j	5c2c <__subdf3+0x2b4>
    5ca4:	0f005c63          	blez	a6,5d9c <__subdf3+0x424>
    5ca8:	08089e63          	bnez	a7,5d44 <__subdf3+0x3cc>
    5cac:	00c766b3          	or	a3,a4,a2
    5cb0:	3a068863          	beqz	a3,6060 <__subdf3+0x6e8>
    5cb4:	fff80693          	addi	a3,a6,-1
    5cb8:	02069063          	bnez	a3,5cd8 <__subdf3+0x360>
    5cbc:	40c50633          	sub	a2,a0,a2
    5cc0:	00c536b3          	sltu	a3,a0,a2
    5cc4:	40e78733          	sub	a4,a5,a4
    5cc8:	00060513          	mv	a0,a2
    5ccc:	40d707b3          	sub	a5,a4,a3
    5cd0:	00100913          	li	s2,1
    5cd4:	0540006f          	j	5d28 <__subdf3+0x3b0>
    5cd8:	7ff00593          	li	a1,2047
    5cdc:	d4b80ae3          	beq	a6,a1,5a30 <__subdf3+0xb8>
    5ce0:	03800593          	li	a1,56
    5ce4:	0ad5c663          	blt	a1,a3,5d90 <__subdf3+0x418>
    5ce8:	01f00593          	li	a1,31
    5cec:	06d5c863          	blt	a1,a3,5d5c <__subdf3+0x3e4>
    5cf0:	02000813          	li	a6,32
    5cf4:	40d80833          	sub	a6,a6,a3
    5cf8:	00d658b3          	srl	a7,a2,a3
    5cfc:	010715b3          	sll	a1,a4,a6
    5d00:	01061833          	sll	a6,a2,a6
    5d04:	0115e5b3          	or	a1,a1,a7
    5d08:	01003833          	snez	a6,a6
    5d0c:	0105e633          	or	a2,a1,a6
    5d10:	00d756b3          	srl	a3,a4,a3
    5d14:	40c50633          	sub	a2,a0,a2
    5d18:	00c53733          	sltu	a4,a0,a2
    5d1c:	40d786b3          	sub	a3,a5,a3
    5d20:	00060513          	mv	a0,a2
    5d24:	40e687b3          	sub	a5,a3,a4
    5d28:	00879713          	slli	a4,a5,0x8
    5d2c:	f00750e3          	bgez	a4,5c2c <__subdf3+0x2b4>
    5d30:	00800437          	lui	s0,0x800
    5d34:	fff40413          	addi	s0,s0,-1 # 7fffff <__stack_top+0x7f369f>
    5d38:	0087f433          	and	s0,a5,s0
    5d3c:	00050993          	mv	s3,a0
    5d40:	2100006f          	j	5f50 <__subdf3+0x5d8>
    5d44:	7ff00693          	li	a3,2047
    5d48:	eed902e3          	beq	s2,a3,5c2c <__subdf3+0x2b4>
    5d4c:	008006b7          	lui	a3,0x800
    5d50:	00d76733          	or	a4,a4,a3
    5d54:	00080693          	mv	a3,a6
    5d58:	f89ff06f          	j	5ce0 <__subdf3+0x368>
    5d5c:	fe068593          	addi	a1,a3,-32 # 7fffe0 <__stack_top+0x7f3680>
    5d60:	02000893          	li	a7,32
    5d64:	00b755b3          	srl	a1,a4,a1
    5d68:	00000813          	li	a6,0
    5d6c:	01168863          	beq	a3,a7,5d7c <__subdf3+0x404>
    5d70:	04000813          	li	a6,64
    5d74:	40d80833          	sub	a6,a6,a3
    5d78:	01071833          	sll	a6,a4,a6
    5d7c:	00c86833          	or	a6,a6,a2
    5d80:	01003833          	snez	a6,a6
    5d84:	0105e633          	or	a2,a1,a6
    5d88:	00000693          	li	a3,0
    5d8c:	f89ff06f          	j	5d14 <__subdf3+0x39c>
    5d90:	00c76633          	or	a2,a4,a2
    5d94:	00c03633          	snez	a2,a2
    5d98:	ff1ff06f          	j	5d88 <__subdf3+0x410>
    5d9c:	0e080863          	beqz	a6,5e8c <__subdf3+0x514>
    5da0:	41288833          	sub	a6,a7,s2
    5da4:	04091263          	bnez	s2,5de8 <__subdf3+0x470>
    5da8:	00a7e5b3          	or	a1,a5,a0
    5dac:	2a058e63          	beqz	a1,6068 <__subdf3+0x6f0>
    5db0:	fff80593          	addi	a1,a6,-1
    5db4:	00059e63          	bnez	a1,5dd0 <__subdf3+0x458>
    5db8:	40a60533          	sub	a0,a2,a0
    5dbc:	40f70733          	sub	a4,a4,a5
    5dc0:	00a63633          	sltu	a2,a2,a0
    5dc4:	40c707b3          	sub	a5,a4,a2
    5dc8:	00068493          	mv	s1,a3
    5dcc:	f05ff06f          	j	5cd0 <__subdf3+0x358>
    5dd0:	7ff00313          	li	t1,2047
    5dd4:	02681463          	bne	a6,t1,5dfc <__subdf3+0x484>
    5dd8:	00070793          	mv	a5,a4
    5ddc:	00060513          	mv	a0,a2
    5de0:	7ff00913          	li	s2,2047
    5de4:	0d00006f          	j	5eb4 <__subdf3+0x53c>
    5de8:	7ff00593          	li	a1,2047
    5dec:	feb886e3          	beq	a7,a1,5dd8 <__subdf3+0x460>
    5df0:	008005b7          	lui	a1,0x800
    5df4:	00b7e7b3          	or	a5,a5,a1
    5df8:	00080593          	mv	a1,a6
    5dfc:	03800813          	li	a6,56
    5e00:	08b84063          	blt	a6,a1,5e80 <__subdf3+0x508>
    5e04:	01f00813          	li	a6,31
    5e08:	04b84263          	blt	a6,a1,5e4c <__subdf3+0x4d4>
    5e0c:	02000313          	li	t1,32
    5e10:	40b30333          	sub	t1,t1,a1
    5e14:	00b55e33          	srl	t3,a0,a1
    5e18:	00679833          	sll	a6,a5,t1
    5e1c:	00651333          	sll	t1,a0,t1
    5e20:	01c86833          	or	a6,a6,t3
    5e24:	00603333          	snez	t1,t1
    5e28:	00686533          	or	a0,a6,t1
    5e2c:	00b7d5b3          	srl	a1,a5,a1
    5e30:	40a60533          	sub	a0,a2,a0
    5e34:	40b705b3          	sub	a1,a4,a1
    5e38:	00a63633          	sltu	a2,a2,a0
    5e3c:	40c587b3          	sub	a5,a1,a2
    5e40:	00088913          	mv	s2,a7
    5e44:	00068493          	mv	s1,a3
    5e48:	ee1ff06f          	j	5d28 <__subdf3+0x3b0>
    5e4c:	fe058813          	addi	a6,a1,-32 # 7fffe0 <__stack_top+0x7f3680>
    5e50:	02000e13          	li	t3,32
    5e54:	0107d833          	srl	a6,a5,a6
    5e58:	00000313          	li	t1,0
    5e5c:	01c58863          	beq	a1,t3,5e6c <__subdf3+0x4f4>
    5e60:	04000313          	li	t1,64
    5e64:	40b30333          	sub	t1,t1,a1
    5e68:	00679333          	sll	t1,a5,t1
    5e6c:	00a36333          	or	t1,t1,a0
    5e70:	00603333          	snez	t1,t1
    5e74:	00686533          	or	a0,a6,t1
    5e78:	00000593          	li	a1,0
    5e7c:	fb5ff06f          	j	5e30 <__subdf3+0x4b8>
    5e80:	00a7e533          	or	a0,a5,a0
    5e84:	00a03533          	snez	a0,a0
    5e88:	ff1ff06f          	j	5e78 <__subdf3+0x500>
    5e8c:	00190593          	addi	a1,s2,1
    5e90:	7fe5f593          	andi	a1,a1,2046
    5e94:	08059663          	bnez	a1,5f20 <__subdf3+0x5a8>
    5e98:	00c765b3          	or	a1,a4,a2
    5e9c:	00a7e833          	or	a6,a5,a0
    5ea0:	06091063          	bnez	s2,5f00 <__subdf3+0x588>
    5ea4:	00081c63          	bnez	a6,5ebc <__subdf3+0x544>
    5ea8:	10058e63          	beqz	a1,5fc4 <__subdf3+0x64c>
    5eac:	00070793          	mv	a5,a4
    5eb0:	00060513          	mv	a0,a2
    5eb4:	00068493          	mv	s1,a3
    5eb8:	d75ff06f          	j	5c2c <__subdf3+0x2b4>
    5ebc:	d60588e3          	beqz	a1,5c2c <__subdf3+0x2b4>
    5ec0:	40c50833          	sub	a6,a0,a2
    5ec4:	010538b3          	sltu	a7,a0,a6
    5ec8:	40e785b3          	sub	a1,a5,a4
    5ecc:	411585b3          	sub	a1,a1,a7
    5ed0:	00859893          	slli	a7,a1,0x8
    5ed4:	0008dc63          	bgez	a7,5eec <__subdf3+0x574>
    5ed8:	40a60533          	sub	a0,a2,a0
    5edc:	40f70733          	sub	a4,a4,a5
    5ee0:	00a63633          	sltu	a2,a2,a0
    5ee4:	40c707b3          	sub	a5,a4,a2
    5ee8:	fcdff06f          	j	5eb4 <__subdf3+0x53c>
    5eec:	00b86533          	or	a0,a6,a1
    5ef0:	18050463          	beqz	a0,6078 <__subdf3+0x700>
    5ef4:	00058793          	mv	a5,a1
    5ef8:	00080513          	mv	a0,a6
    5efc:	d31ff06f          	j	5c2c <__subdf3+0x2b4>
    5f00:	00081c63          	bnez	a6,5f18 <__subdf3+0x5a0>
    5f04:	d4058ee3          	beqz	a1,5c60 <__subdf3+0x2e8>
    5f08:	00070793          	mv	a5,a4
    5f0c:	00060513          	mv	a0,a2
    5f10:	00068493          	mv	s1,a3
    5f14:	b1dff06f          	j	5a30 <__subdf3+0xb8>
    5f18:	b0058ce3          	beqz	a1,5a30 <__subdf3+0xb8>
    5f1c:	d45ff06f          	j	5c60 <__subdf3+0x2e8>
    5f20:	40c505b3          	sub	a1,a0,a2
    5f24:	00b53833          	sltu	a6,a0,a1
    5f28:	40e78433          	sub	s0,a5,a4
    5f2c:	41040433          	sub	s0,s0,a6
    5f30:	00841813          	slli	a6,s0,0x8
    5f34:	00058993          	mv	s3,a1
    5f38:	08085063          	bgez	a6,5fb8 <__subdf3+0x640>
    5f3c:	40a609b3          	sub	s3,a2,a0
    5f40:	40f70433          	sub	s0,a4,a5
    5f44:	01363633          	sltu	a2,a2,s3
    5f48:	40c40433          	sub	s0,s0,a2
    5f4c:	00068493          	mv	s1,a3
    5f50:	06040e63          	beqz	s0,5fcc <__subdf3+0x654>
    5f54:	00040513          	mv	a0,s0
    5f58:	3a4000ef          	jal	62fc <__clzsi2>
    5f5c:	ff850693          	addi	a3,a0,-8
    5f60:	02000793          	li	a5,32
    5f64:	40d787b3          	sub	a5,a5,a3
    5f68:	00d41433          	sll	s0,s0,a3
    5f6c:	00f9d7b3          	srl	a5,s3,a5
    5f70:	0087e7b3          	or	a5,a5,s0
    5f74:	00d99433          	sll	s0,s3,a3
    5f78:	0b26c463          	blt	a3,s2,6020 <__subdf3+0x6a8>
    5f7c:	412686b3          	sub	a3,a3,s2
    5f80:	00168613          	addi	a2,a3,1
    5f84:	01f00713          	li	a4,31
    5f88:	06c74263          	blt	a4,a2,5fec <__subdf3+0x674>
    5f8c:	02000713          	li	a4,32
    5f90:	40c70733          	sub	a4,a4,a2
    5f94:	00e79533          	sll	a0,a5,a4
    5f98:	00c456b3          	srl	a3,s0,a2
    5f9c:	00e41733          	sll	a4,s0,a4
    5fa0:	00d56533          	or	a0,a0,a3
    5fa4:	00e03733          	snez	a4,a4
    5fa8:	00e56533          	or	a0,a0,a4
    5fac:	00c7d7b3          	srl	a5,a5,a2
    5fb0:	00000913          	li	s2,0
    5fb4:	c79ff06f          	j	5c2c <__subdf3+0x2b4>
    5fb8:	0085e5b3          	or	a1,a1,s0
    5fbc:	f8059ae3          	bnez	a1,5f50 <__subdf3+0x5d8>
    5fc0:	00000913          	li	s2,0
    5fc4:	00000493          	li	s1,0
    5fc8:	08c0006f          	j	6054 <__subdf3+0x6dc>
    5fcc:	00098513          	mv	a0,s3
    5fd0:	32c000ef          	jal	62fc <__clzsi2>
    5fd4:	01850693          	addi	a3,a0,24
    5fd8:	01f00793          	li	a5,31
    5fdc:	f8d7d2e3          	bge	a5,a3,5f60 <__subdf3+0x5e8>
    5fe0:	ff850793          	addi	a5,a0,-8
    5fe4:	00f997b3          	sll	a5,s3,a5
    5fe8:	f91ff06f          	j	5f78 <__subdf3+0x600>
    5fec:	fe168693          	addi	a3,a3,-31
    5ff0:	00d7d533          	srl	a0,a5,a3
    5ff4:	02000693          	li	a3,32
    5ff8:	00000713          	li	a4,0
    5ffc:	00d60863          	beq	a2,a3,600c <__subdf3+0x694>
    6000:	04000713          	li	a4,64
    6004:	40c70733          	sub	a4,a4,a2
    6008:	00e79733          	sll	a4,a5,a4
    600c:	00e46733          	or	a4,s0,a4
    6010:	00e03733          	snez	a4,a4
    6014:	00e56533          	or	a0,a0,a4
    6018:	00000793          	li	a5,0
    601c:	f95ff06f          	j	5fb0 <__subdf3+0x638>
    6020:	ff800737          	lui	a4,0xff800
    6024:	fff70713          	addi	a4,a4,-1 # ff7fffff <__stack_top+0xff7f369f>
    6028:	40d90933          	sub	s2,s2,a3
    602c:	00e7f7b3          	and	a5,a5,a4
    6030:	00040513          	mv	a0,s0
    6034:	bf9ff06f          	j	5c2c <__subdf3+0x2b4>
    6038:	00070793          	mv	a5,a4
    603c:	00060513          	mv	a0,a2
    6040:	c5dff06f          	j	5c9c <__subdf3+0x324>
    6044:	00070793          	mv	a5,a4
    6048:	00060513          	mv	a0,a2
    604c:	be1ff06f          	j	5c2c <__subdf3+0x2b4>
    6050:	7ff00913          	li	s2,2047
    6054:	00000793          	li	a5,0
    6058:	00000513          	li	a0,0
    605c:	0240006f          	j	6080 <__subdf3+0x708>
    6060:	00080913          	mv	s2,a6
    6064:	bc9ff06f          	j	5c2c <__subdf3+0x2b4>
    6068:	00070793          	mv	a5,a4
    606c:	00060513          	mv	a0,a2
    6070:	00080913          	mv	s2,a6
    6074:	e41ff06f          	j	5eb4 <__subdf3+0x53c>
    6078:	00000793          	li	a5,0
    607c:	00000493          	li	s1,0
    6080:	00879713          	slli	a4,a5,0x8
    6084:	00075e63          	bgez	a4,60a0 <__subdf3+0x728>
    6088:	00190913          	addi	s2,s2,1
    608c:	7ff00713          	li	a4,2047
    6090:	08e90263          	beq	s2,a4,6114 <__subdf3+0x79c>
    6094:	ff800737          	lui	a4,0xff800
    6098:	fff70713          	addi	a4,a4,-1 # ff7fffff <__stack_top+0xff7f369f>
    609c:	00e7f7b3          	and	a5,a5,a4
    60a0:	01d79693          	slli	a3,a5,0x1d
    60a4:	00355513          	srli	a0,a0,0x3
    60a8:	7ff00713          	li	a4,2047
    60ac:	00a6e6b3          	or	a3,a3,a0
    60b0:	0037d793          	srli	a5,a5,0x3
    60b4:	00e91e63          	bne	s2,a4,60d0 <__subdf3+0x758>
    60b8:	00f6e6b3          	or	a3,a3,a5
    60bc:	00000793          	li	a5,0
    60c0:	00068863          	beqz	a3,60d0 <__subdf3+0x758>
    60c4:	000807b7          	lui	a5,0x80
    60c8:	00000693          	li	a3,0
    60cc:	00000493          	li	s1,0
    60d0:	01491713          	slli	a4,s2,0x14
    60d4:	7ff00637          	lui	a2,0x7ff00
    60d8:	00c79793          	slli	a5,a5,0xc
    60dc:	00c77733          	and	a4,a4,a2
    60e0:	01c12083          	lw	ra,28(sp)
    60e4:	01812403          	lw	s0,24(sp)
    60e8:	00c7d793          	srli	a5,a5,0xc
    60ec:	00f767b3          	or	a5,a4,a5
    60f0:	01f49713          	slli	a4,s1,0x1f
    60f4:	00e7e633          	or	a2,a5,a4
    60f8:	01412483          	lw	s1,20(sp)
    60fc:	01012903          	lw	s2,16(sp)
    6100:	00c12983          	lw	s3,12(sp)
    6104:	00068513          	mv	a0,a3
    6108:	00060593          	mv	a1,a2
    610c:	02010113          	addi	sp,sp,32
    6110:	00008067          	ret
    6114:	00000793          	li	a5,0
    6118:	00000513          	li	a0,0
    611c:	f85ff06f          	j	60a0 <__subdf3+0x728>

00006120 <__fixunsdfsi>:
    6120:	0145d713          	srli	a4,a1,0x14
    6124:	00100837          	lui	a6,0x100
    6128:	fff80793          	addi	a5,a6,-1 # fffff <__stack_top+0xf369f>
    612c:	7ff77713          	andi	a4,a4,2047
    6130:	3fe00613          	li	a2,1022
    6134:	00b7f7b3          	and	a5,a5,a1
    6138:	00050693          	mv	a3,a0
    613c:	01f5d593          	srli	a1,a1,0x1f
    6140:	04e65a63          	bge	a2,a4,6194 <__fixunsdfsi+0x74>
    6144:	0015c613          	xori	a2,a1,1
    6148:	41e60613          	addi	a2,a2,1054 # 7ff0041e <__stack_top+0x7fef3abe>
    614c:	fff58513          	addi	a0,a1,-1
    6150:	04c75463          	bge	a4,a2,6198 <__fixunsdfsi+0x78>
    6154:	00000513          	li	a0,0
    6158:	04059063          	bnez	a1,6198 <__fixunsdfsi+0x78>
    615c:	43300613          	li	a2,1075
    6160:	40e60633          	sub	a2,a2,a4
    6164:	01f00593          	li	a1,31
    6168:	0107e7b3          	or	a5,a5,a6
    616c:	00c5cc63          	blt	a1,a2,6184 <__fixunsdfsi+0x64>
    6170:	bed70713          	addi	a4,a4,-1043
    6174:	00e797b3          	sll	a5,a5,a4
    6178:	00c6d533          	srl	a0,a3,a2
    617c:	00a7e533          	or	a0,a5,a0
    6180:	00008067          	ret
    6184:	41300693          	li	a3,1043
    6188:	40e68733          	sub	a4,a3,a4
    618c:	00e7d533          	srl	a0,a5,a4
    6190:	00008067          	ret
    6194:	00000513          	li	a0,0
    6198:	00008067          	ret

0000619c <__floatunsidf>:
    619c:	ff010113          	addi	sp,sp,-16
    61a0:	00812423          	sw	s0,8(sp)
    61a4:	00112623          	sw	ra,12(sp)
    61a8:	00050413          	mv	s0,a0
    61ac:	06050263          	beqz	a0,6210 <__floatunsidf+0x74>
    61b0:	14c000ef          	jal	62fc <__clzsi2>
    61b4:	41e00713          	li	a4,1054
    61b8:	00a00793          	li	a5,10
    61bc:	40a70733          	sub	a4,a4,a0
    61c0:	04a7c063          	blt	a5,a0,6200 <__floatunsidf+0x64>
    61c4:	00b00793          	li	a5,11
    61c8:	40a787b3          	sub	a5,a5,a0
    61cc:	01550513          	addi	a0,a0,21
    61d0:	00f457b3          	srl	a5,s0,a5
    61d4:	00a41433          	sll	s0,s0,a0
    61d8:	00c12083          	lw	ra,12(sp)
    61dc:	00040513          	mv	a0,s0
    61e0:	00c79793          	slli	a5,a5,0xc
    61e4:	00812403          	lw	s0,8(sp)
    61e8:	01471713          	slli	a4,a4,0x14
    61ec:	00c7d793          	srli	a5,a5,0xc
    61f0:	00f766b3          	or	a3,a4,a5
    61f4:	00068593          	mv	a1,a3
    61f8:	01010113          	addi	sp,sp,16
    61fc:	00008067          	ret
    6200:	ff550513          	addi	a0,a0,-11
    6204:	00a417b3          	sll	a5,s0,a0
    6208:	00000413          	li	s0,0
    620c:	fcdff06f          	j	61d8 <__floatunsidf+0x3c>
    6210:	00000793          	li	a5,0
    6214:	00000713          	li	a4,0
    6218:	fc1ff06f          	j	61d8 <__floatunsidf+0x3c>

0000621c <__fixunsdfdi>:
    621c:	001006b7          	lui	a3,0x100
    6220:	0145d613          	srli	a2,a1,0x14
    6224:	fff68793          	addi	a5,a3,-1 # fffff <__stack_top+0xf369f>
    6228:	7ff67613          	andi	a2,a2,2047
    622c:	3fe00713          	li	a4,1022
    6230:	00b7f7b3          	and	a5,a5,a1
    6234:	08c75463          	bge	a4,a2,62bc <__fixunsdfdi+0xa0>
    6238:	01f5d593          	srli	a1,a1,0x1f
    623c:	0015c713          	xori	a4,a1,1
    6240:	43e70713          	addi	a4,a4,1086
    6244:	02e65863          	bge	a2,a4,6274 <__fixunsdfdi+0x58>
    6248:	06059a63          	bnez	a1,62bc <__fixunsdfdi+0xa0>
    624c:	00d7e5b3          	or	a1,a5,a3
    6250:	43200793          	li	a5,1074
    6254:	02c7d663          	bge	a5,a2,6280 <__fixunsdfdi+0x64>
    6258:	ff010113          	addi	sp,sp,-16
    625c:	bcd60613          	addi	a2,a2,-1075
    6260:	00112623          	sw	ra,12(sp)
    6264:	060000ef          	jal	62c4 <__ashldi3>
    6268:	00c12083          	lw	ra,12(sp)
    626c:	01010113          	addi	sp,sp,16
    6270:	00008067          	ret
    6274:	fff58513          	addi	a0,a1,-1
    6278:	00050593          	mv	a1,a0
    627c:	00008067          	ret
    6280:	43300793          	li	a5,1075
    6284:	40c787b3          	sub	a5,a5,a2
    6288:	01f00713          	li	a4,31
    628c:	00f74e63          	blt	a4,a5,62a8 <__fixunsdfdi+0x8c>
    6290:	bed60613          	addi	a2,a2,-1043
    6294:	00c59633          	sll	a2,a1,a2
    6298:	00f55533          	srl	a0,a0,a5
    629c:	00a66533          	or	a0,a2,a0
    62a0:	00f5d5b3          	srl	a1,a1,a5
    62a4:	00008067          	ret
    62a8:	41300513          	li	a0,1043
    62ac:	40c50533          	sub	a0,a0,a2
    62b0:	00a5d533          	srl	a0,a1,a0
    62b4:	00000593          	li	a1,0
    62b8:	00008067          	ret
    62bc:	00000513          	li	a0,0
    62c0:	ff5ff06f          	j	62b4 <__fixunsdfdi+0x98>

000062c4 <__ashldi3>:
    62c4:	02060063          	beqz	a2,62e4 <__ashldi3+0x20>
    62c8:	02000793          	li	a5,32
    62cc:	40c787b3          	sub	a5,a5,a2
    62d0:	00f04c63          	bgtz	a5,62e8 <__ashldi3+0x24>
    62d4:	fe060613          	addi	a2,a2,-32
    62d8:	00c515b3          	sll	a1,a0,a2
    62dc:	00000713          	li	a4,0
    62e0:	00070513          	mv	a0,a4
    62e4:	00008067          	ret
    62e8:	00c51733          	sll	a4,a0,a2
    62ec:	00c595b3          	sll	a1,a1,a2
    62f0:	00f55533          	srl	a0,a0,a5
    62f4:	00a5e5b3          	or	a1,a1,a0
    62f8:	fe9ff06f          	j	62e0 <__ashldi3+0x1c>

000062fc <__clzsi2>:
    62fc:	000107b7          	lui	a5,0x10
    6300:	02f57a63          	bgeu	a0,a5,6334 <__clzsi2+0x38>
    6304:	10053793          	sltiu	a5,a0,256
    6308:	0017b793          	seqz	a5,a5
    630c:	00379793          	slli	a5,a5,0x3
    6310:	00008737          	lui	a4,0x8
    6314:	02000693          	li	a3,32
    6318:	40f686b3          	sub	a3,a3,a5
    631c:	00f55533          	srl	a0,a0,a5
    6320:	7e070793          	addi	a5,a4,2016 # 87e0 <__clz_tab>
    6324:	00a787b3          	add	a5,a5,a0
    6328:	0007c503          	lbu	a0,0(a5) # 10000 <__stack_top+0x36a0>
    632c:	40a68533          	sub	a0,a3,a0
    6330:	00008067          	ret
    6334:	01000737          	lui	a4,0x1000
    6338:	01800793          	li	a5,24
    633c:	fce57ae3          	bgeu	a0,a4,6310 <__clzsi2+0x14>
    6340:	01000793          	li	a5,16
    6344:	fcdff06f          	j	6310 <__clzsi2+0x14>
